
./elf_output/stm32f103.elf:     file format elf32-littlearm


Disassembly of section .isr_vector:

08000000 <g_pfnVectors>:
 8000000:	20005000 	andcs	r5, r0, r0
 8000004:	080001e5 	stmdaeq	r0, {r0, r2, r5, r6, r7, r8}
 8000008:	0800022d 	stmdaeq	r0, {r0, r2, r3, r5, r9}
 800000c:	0800022d 	stmdaeq	r0, {r0, r2, r3, r5, r9}
 8000010:	0800022d 	stmdaeq	r0, {r0, r2, r3, r5, r9}
 8000014:	0800022d 	stmdaeq	r0, {r0, r2, r3, r5, r9}
 8000018:	0800022d 	stmdaeq	r0, {r0, r2, r3, r5, r9}
	...
 800002c:	0800022d 	stmdaeq	r0, {r0, r2, r3, r5, r9}
 8000030:	0800022d 	stmdaeq	r0, {r0, r2, r3, r5, r9}
 8000034:	00000000 	andeq	r0, r0, r0
 8000038:	0800022d 	stmdaeq	r0, {r0, r2, r3, r5, r9}
 800003c:	0800022f 	stmdaeq	r0, {r0, r1, r2, r3, r5, r9}
 8000040:	0800022d 	stmdaeq	r0, {r0, r2, r3, r5, r9}
 8000044:	0800022d 	stmdaeq	r0, {r0, r2, r3, r5, r9}
 8000048:	0800022d 	stmdaeq	r0, {r0, r2, r3, r5, r9}
 800004c:	0800022d 	stmdaeq	r0, {r0, r2, r3, r5, r9}
 8000050:	0800022d 	stmdaeq	r0, {r0, r2, r3, r5, r9}
 8000054:	0800022d 	stmdaeq	r0, {r0, r2, r3, r5, r9}
 8000058:	0800022d 	stmdaeq	r0, {r0, r2, r3, r5, r9}
 800005c:	0800022d 	stmdaeq	r0, {r0, r2, r3, r5, r9}
 8000060:	0800022d 	stmdaeq	r0, {r0, r2, r3, r5, r9}
 8000064:	0800022d 	stmdaeq	r0, {r0, r2, r3, r5, r9}
 8000068:	0800022d 	stmdaeq	r0, {r0, r2, r3, r5, r9}
 800006c:	0800022d 	stmdaeq	r0, {r0, r2, r3, r5, r9}
 8000070:	0800022d 	stmdaeq	r0, {r0, r2, r3, r5, r9}
 8000074:	0800022d 	stmdaeq	r0, {r0, r2, r3, r5, r9}
 8000078:	0800022d 	stmdaeq	r0, {r0, r2, r3, r5, r9}
 800007c:	0800022d 	stmdaeq	r0, {r0, r2, r3, r5, r9}
 8000080:	0800022d 	stmdaeq	r0, {r0, r2, r3, r5, r9}
 8000084:	0800022d 	stmdaeq	r0, {r0, r2, r3, r5, r9}
 8000088:	0800022d 	stmdaeq	r0, {r0, r2, r3, r5, r9}
 800008c:	0800022d 	stmdaeq	r0, {r0, r2, r3, r5, r9}
 8000090:	0800022d 	stmdaeq	r0, {r0, r2, r3, r5, r9}
 8000094:	0800022d 	stmdaeq	r0, {r0, r2, r3, r5, r9}
 8000098:	0800022d 	stmdaeq	r0, {r0, r2, r3, r5, r9}
 800009c:	0800022d 	stmdaeq	r0, {r0, r2, r3, r5, r9}
 80000a0:	0800022d 	stmdaeq	r0, {r0, r2, r3, r5, r9}
 80000a4:	0800022d 	stmdaeq	r0, {r0, r2, r3, r5, r9}
 80000a8:	0800022d 	stmdaeq	r0, {r0, r2, r3, r5, r9}
 80000ac:	0800022d 	stmdaeq	r0, {r0, r2, r3, r5, r9}
 80000b0:	0800022d 	stmdaeq	r0, {r0, r2, r3, r5, r9}
 80000b4:	0800022d 	stmdaeq	r0, {r0, r2, r3, r5, r9}
 80000b8:	0800022d 	stmdaeq	r0, {r0, r2, r3, r5, r9}
 80000bc:	0800022d 	stmdaeq	r0, {r0, r2, r3, r5, r9}
 80000c0:	0800022d 	stmdaeq	r0, {r0, r2, r3, r5, r9}
 80000c4:	0800022d 	stmdaeq	r0, {r0, r2, r3, r5, r9}
 80000c8:	0800022d 	stmdaeq	r0, {r0, r2, r3, r5, r9}
 80000cc:	0800022d 	stmdaeq	r0, {r0, r2, r3, r5, r9}
 80000d0:	0800022d 	stmdaeq	r0, {r0, r2, r3, r5, r9}
 80000d4:	0800022d 	stmdaeq	r0, {r0, r2, r3, r5, r9}
 80000d8:	0800022d 	stmdaeq	r0, {r0, r2, r3, r5, r9}
 80000dc:	0800022d 	stmdaeq	r0, {r0, r2, r3, r5, r9}
 80000e0:	0800022d 	stmdaeq	r0, {r0, r2, r3, r5, r9}
 80000e4:	0800022d 	stmdaeq	r0, {r0, r2, r3, r5, r9}
 80000e8:	0800022d 	stmdaeq	r0, {r0, r2, r3, r5, r9}
 80000ec:	0800022d 	stmdaeq	r0, {r0, r2, r3, r5, r9}
 80000f0:	0800022d 	stmdaeq	r0, {r0, r2, r3, r5, r9}
 80000f4:	0800022d 	stmdaeq	r0, {r0, r2, r3, r5, r9}
 80000f8:	0800022d 	stmdaeq	r0, {r0, r2, r3, r5, r9}
 80000fc:	0800022d 	stmdaeq	r0, {r0, r2, r3, r5, r9}
 8000100:	0800022d 	stmdaeq	r0, {r0, r2, r3, r5, r9}
 8000104:	0800022d 	stmdaeq	r0, {r0, r2, r3, r5, r9}
 8000108:	0800022d 	stmdaeq	r0, {r0, r2, r3, r5, r9}
 800010c:	0800022d 	stmdaeq	r0, {r0, r2, r3, r5, r9}
 8000110:	0800022d 	stmdaeq	r0, {r0, r2, r3, r5, r9}
 8000114:	0800022d 	stmdaeq	r0, {r0, r2, r3, r5, r9}
 8000118:	0800022d 	stmdaeq	r0, {r0, r2, r3, r5, r9}
 800011c:	0800022d 	stmdaeq	r0, {r0, r2, r3, r5, r9}
 8000120:	0800022d 	stmdaeq	r0, {r0, r2, r3, r5, r9}
 8000124:	0800022d 	stmdaeq	r0, {r0, r2, r3, r5, r9}
 8000128:	0800022d 	stmdaeq	r0, {r0, r2, r3, r5, r9}
 800012c:	0800022d 	stmdaeq	r0, {r0, r2, r3, r5, r9}
	...
 80001e0:	f1e0f85f 			; <UNDEFINED> instruction: 0xf1e0f85f

Disassembly of section .text:

080001e4 <Reset_Handler>:
 80001e4:	2100      	movs	r1, #0
 80001e6:	e003      	b.n	80001f0 <LoopCopyDataInit>

080001e8 <CopyDataInit>:
 80001e8:	4b0b      	ldr	r3, [pc, #44]	; (8000218 <LoopFillZerobss+0x14>)
 80001ea:	585b      	ldr	r3, [r3, r1]
 80001ec:	5043      	str	r3, [r0, r1]
 80001ee:	3104      	adds	r1, #4

080001f0 <LoopCopyDataInit>:
 80001f0:	480a      	ldr	r0, [pc, #40]	; (800021c <LoopFillZerobss+0x18>)
 80001f2:	4b0b      	ldr	r3, [pc, #44]	; (8000220 <LoopFillZerobss+0x1c>)
 80001f4:	1842      	adds	r2, r0, r1
 80001f6:	429a      	cmp	r2, r3
 80001f8:	d3f6      	bcc.n	80001e8 <CopyDataInit>
 80001fa:	4a0a      	ldr	r2, [pc, #40]	; (8000224 <LoopFillZerobss+0x20>)
 80001fc:	e002      	b.n	8000204 <LoopFillZerobss>

080001fe <FillZerobss>:
 80001fe:	2300      	movs	r3, #0
 8000200:	f842 3b04 	str.w	r3, [r2], #4

08000204 <LoopFillZerobss>:
 8000204:	4b08      	ldr	r3, [pc, #32]	; (8000228 <LoopFillZerobss+0x24>)
 8000206:	429a      	cmp	r2, r3
 8000208:	d3f9      	bcc.n	80001fe <FillZerobss>
 800020a:	f000 f85d 	bl	80002c8 <SystemInit>
 800020e:	f000 f813 	bl	8000238 <_main>
 8000212:	f000 f853 	bl	80002bc <main>
 8000216:	4770      	bx	lr
 8000218:	20000000 	andcs	r0, r0, r0
 800021c:	20000400 	andcs	r0, r0, r0, lsl #8
 8000220:	20000800 	andcs	r0, r0, r0, lsl #16
 8000224:	20000c00 	andcs	r0, r0, r0, lsl #24
 8000228:	20001000 	andcs	r1, r0, r0

0800022c <ADC1_2_IRQHandler>:
 800022c:	e7fe      	b.n	800022c <ADC1_2_IRQHandler>

0800022e <SysTick_Handler>:
 800022e:	f000 b821 	b.w	8000274 <systick_Handle>
	...

08000234 <touch_init>:
 8000234:	4770      	bx	lr
 8000236:	bf00      	nop

08000238 <_main>:
 8000238:	b508      	push	{r3, lr}
 800023a:	f000 f8f7 	bl	800042c <systick_init>
 800023e:	f000 f9bd 	bl	80005bc <usart1_init>
 8000242:	f000 f839 	bl	80002b8 <tft_init>
 8000246:	f7ff fff5 	bl	8000234 <touch_init>
 800024a:	f000 f80b 	bl	8000264 <interrupt_open>
 800024e:	f000 f8c3 	bl	80003d8 <LED_Init>
 8000252:	4b03      	ldr	r3, [pc, #12]	; (8000260 <_main+0x28>)
 8000254:	6818      	ldr	r0, [r3, #0]
 8000256:	f040 0201 	orr.w	r2, r0, #1
 800025a:	601a      	str	r2, [r3, #0]
 800025c:	bd08      	pop	{r3, pc}
 800025e:	bf00      	nop
 8000260:	e000e010 	and	lr, r0, r0, lsl r0

08000264 <interrupt_open>:
 8000264:	4b02      	ldr	r3, [pc, #8]	; (8000270 <interrupt_open+0xc>)
 8000266:	6818      	ldr	r0, [r3, #0]
 8000268:	f040 0202 	orr.w	r2, r0, #2
 800026c:	601a      	str	r2, [r3, #0]
 800026e:	4770      	bx	lr
 8000270:	e000e010 	and	lr, r0, r0, lsl r0

08000274 <systick_Handle>:
 8000274:	4b0e      	ldr	r3, [pc, #56]	; (80002b0 <systick_Handle+0x3c>)
 8000276:	781a      	ldrb	r2, [r3, #0]
 8000278:	2a63      	cmp	r2, #99	; 0x63
 800027a:	d90b      	bls.n	8000294 <systick_Handle+0x20>
 800027c:	7819      	ldrb	r1, [r3, #0]
 800027e:	1c48      	adds	r0, r1, #1
 8000280:	7018      	strb	r0, [r3, #0]
 8000282:	f893 c000 	ldrb.w	ip, [r3]
 8000286:	f1bc 0fc8 	cmp.w	ip, #200	; 0xc8
 800028a:	d00a      	beq.n	80002a2 <systick_Handle+0x2e>
 800028c:	4b09      	ldr	r3, [pc, #36]	; (80002b4 <systick_Handle+0x40>)
 800028e:	2001      	movs	r0, #1
 8000290:	6018      	str	r0, [r3, #0]
 8000292:	4770      	bx	lr
 8000294:	781a      	ldrb	r2, [r3, #0]
 8000296:	2000      	movs	r0, #0
 8000298:	1c51      	adds	r1, r2, #1
 800029a:	7019      	strb	r1, [r3, #0]
 800029c:	4b05      	ldr	r3, [pc, #20]	; (80002b4 <systick_Handle+0x40>)
 800029e:	6018      	str	r0, [r3, #0]
 80002a0:	4770      	bx	lr
 80002a2:	2200      	movs	r2, #0
 80002a4:	701a      	strb	r2, [r3, #0]
 80002a6:	4b03      	ldr	r3, [pc, #12]	; (80002b4 <systick_Handle+0x40>)
 80002a8:	2001      	movs	r0, #1
 80002aa:	6018      	str	r0, [r3, #0]
 80002ac:	4770      	bx	lr
 80002ae:	bf00      	nop
 80002b0:	20000014 	andcs	r0, r0, r4, lsl r0
 80002b4:	42228188 	eormi	r8, r2, #136, 2	; 0x22

080002b8 <tft_init>:
 80002b8:	4770      	bx	lr
 80002ba:	bf00      	nop

080002bc <main>:
 80002bc:	b508      	push	{r3, lr}
 80002be:	2061      	movs	r0, #97	; 0x61
 80002c0:	f000 f970 	bl	80005a4 <_fputc>
 80002c4:	e7fb      	b.n	80002be <main+0x2>
 80002c6:	bf00      	nop

080002c8 <SystemInit>:
 80002c8:	4b3f      	ldr	r3, [pc, #252]	; (80003c8 <SystemInit+0x100>)
 80002ca:	4a40      	ldr	r2, [pc, #256]	; (80003cc <SystemInit+0x104>)
 80002cc:	6818      	ldr	r0, [r3, #0]
 80002ce:	2100      	movs	r1, #0
 80002d0:	f040 0001 	orr.w	r0, r0, #1
 80002d4:	6018      	str	r0, [r3, #0]
 80002d6:	6858      	ldr	r0, [r3, #4]
 80002d8:	b082      	sub	sp, #8
 80002da:	ea00 0202 	and.w	r2, r0, r2
 80002de:	605a      	str	r2, [r3, #4]
 80002e0:	6818      	ldr	r0, [r3, #0]
 80002e2:	461a      	mov	r2, r3
 80002e4:	f020 7c84 	bic.w	ip, r0, #17301504	; 0x1080000
 80002e8:	f42c 3080 	bic.w	r0, ip, #65536	; 0x10000
 80002ec:	6018      	str	r0, [r3, #0]
 80002ee:	6818      	ldr	r0, [r3, #0]
 80002f0:	f420 2080 	bic.w	r0, r0, #262144	; 0x40000
 80002f4:	6018      	str	r0, [r3, #0]
 80002f6:	6858      	ldr	r0, [r3, #4]
 80002f8:	f420 00fe 	bic.w	r0, r0, #8323072	; 0x7f0000
 80002fc:	6058      	str	r0, [r3, #4]
 80002fe:	f44f 001f 	mov.w	r0, #10420224	; 0x9f0000
 8000302:	6098      	str	r0, [r3, #8]
 8000304:	9101      	str	r1, [sp, #4]
 8000306:	9100      	str	r1, [sp, #0]
 8000308:	6818      	ldr	r0, [r3, #0]
 800030a:	f440 3180 	orr.w	r1, r0, #65536	; 0x10000
 800030e:	6019      	str	r1, [r3, #0]
 8000310:	e003      	b.n	800031a <SystemInit+0x52>
 8000312:	9801      	ldr	r0, [sp, #4]
 8000314:	f5b0 6fa0 	cmp.w	r0, #1280	; 0x500
 8000318:	d009      	beq.n	800032e <SystemInit+0x66>
 800031a:	6811      	ldr	r1, [r2, #0]
 800031c:	f401 3300 	and.w	r3, r1, #131072	; 0x20000
 8000320:	9300      	str	r3, [sp, #0]
 8000322:	9801      	ldr	r0, [sp, #4]
 8000324:	1c41      	adds	r1, r0, #1
 8000326:	9101      	str	r1, [sp, #4]
 8000328:	9b00      	ldr	r3, [sp, #0]
 800032a:	2b00      	cmp	r3, #0
 800032c:	d0f1      	beq.n	8000312 <SystemInit+0x4a>
 800032e:	4b26      	ldr	r3, [pc, #152]	; (80003c8 <SystemInit+0x100>)
 8000330:	681a      	ldr	r2, [r3, #0]
 8000332:	f412 3300 	ands.w	r3, r2, #131072	; 0x20000
 8000336:	d00a      	beq.n	800034e <SystemInit+0x86>
 8000338:	2101      	movs	r1, #1
 800033a:	9100      	str	r1, [sp, #0]
 800033c:	9800      	ldr	r0, [sp, #0]
 800033e:	2801      	cmp	r0, #1
 8000340:	d009      	beq.n	8000356 <SystemInit+0x8e>
 8000342:	4823      	ldr	r0, [pc, #140]	; (80003d0 <SystemInit+0x108>)
 8000344:	f04f 6100 	mov.w	r1, #134217728	; 0x8000000
 8000348:	6081      	str	r1, [r0, #8]
 800034a:	b002      	add	sp, #8
 800034c:	4770      	bx	lr
 800034e:	9300      	str	r3, [sp, #0]
 8000350:	9800      	ldr	r0, [sp, #0]
 8000352:	2801      	cmp	r0, #1
 8000354:	d1f5      	bne.n	8000342 <SystemInit+0x7a>
 8000356:	4a1f      	ldr	r2, [pc, #124]	; (80003d4 <SystemInit+0x10c>)
 8000358:	4b1b      	ldr	r3, [pc, #108]	; (80003c8 <SystemInit+0x100>)
 800035a:	6810      	ldr	r0, [r2, #0]
 800035c:	4619      	mov	r1, r3
 800035e:	f040 0010 	orr.w	r0, r0, #16
 8000362:	6010      	str	r0, [r2, #0]
 8000364:	6810      	ldr	r0, [r2, #0]
 8000366:	f020 0003 	bic.w	r0, r0, #3
 800036a:	6010      	str	r0, [r2, #0]
 800036c:	6810      	ldr	r0, [r2, #0]
 800036e:	f040 0002 	orr.w	r0, r0, #2
 8000372:	6010      	str	r0, [r2, #0]
 8000374:	6858      	ldr	r0, [r3, #4]
 8000376:	6058      	str	r0, [r3, #4]
 8000378:	685a      	ldr	r2, [r3, #4]
 800037a:	605a      	str	r2, [r3, #4]
 800037c:	6858      	ldr	r0, [r3, #4]
 800037e:	f440 6280 	orr.w	r2, r0, #1024	; 0x400
 8000382:	605a      	str	r2, [r3, #4]
 8000384:	6858      	ldr	r0, [r3, #4]
 8000386:	f420 127c 	bic.w	r2, r0, #4128768	; 0x3f0000
 800038a:	605a      	str	r2, [r3, #4]
 800038c:	6858      	ldr	r0, [r3, #4]
 800038e:	f440 12e8 	orr.w	r2, r0, #1900544	; 0x1d0000
 8000392:	605a      	str	r2, [r3, #4]
 8000394:	6818      	ldr	r0, [r3, #0]
 8000396:	f040 7280 	orr.w	r2, r0, #16777216	; 0x1000000
 800039a:	601a      	str	r2, [r3, #0]
 800039c:	680b      	ldr	r3, [r1, #0]
 800039e:	4a0a      	ldr	r2, [pc, #40]	; (80003c8 <SystemInit+0x100>)
 80003a0:	f013 7f00 	tst.w	r3, #33554432	; 0x2000000
 80003a4:	d0fa      	beq.n	800039c <SystemInit+0xd4>
 80003a6:	6853      	ldr	r3, [r2, #4]
 80003a8:	4611      	mov	r1, r2
 80003aa:	f023 0003 	bic.w	r0, r3, #3
 80003ae:	6050      	str	r0, [r2, #4]
 80003b0:	6853      	ldr	r3, [r2, #4]
 80003b2:	f043 0002 	orr.w	r0, r3, #2
 80003b6:	6050      	str	r0, [r2, #4]
 80003b8:	684a      	ldr	r2, [r1, #4]
 80003ba:	f002 0c0c 	and.w	ip, r2, #12
 80003be:	f1bc 0f08 	cmp.w	ip, #8
 80003c2:	d1f9      	bne.n	80003b8 <SystemInit+0xf0>
 80003c4:	e7bd      	b.n	8000342 <SystemInit+0x7a>
 80003c6:	bf00      	nop
 80003c8:	40021000 	andmi	r1, r2, r0
 80003cc:	f8ff0000 			; <UNDEFINED> instruction: 0xf8ff0000
 80003d0:	e000ed00 	and	lr, r0, r0, lsl #26
 80003d4:	40022000 	andmi	r2, r2, r0

080003d8 <LED_Init>:
 80003d8:	4911      	ldr	r1, [pc, #68]	; (8000420 <LED_Init+0x48>)
 80003da:	4a12      	ldr	r2, [pc, #72]	; (8000424 <LED_Init+0x4c>)
 80003dc:	6988      	ldr	r0, [r1, #24]
 80003de:	4b12      	ldr	r3, [pc, #72]	; (8000428 <LED_Init+0x50>)
 80003e0:	f040 0004 	orr.w	r0, r0, #4
 80003e4:	6188      	str	r0, [r1, #24]
 80003e6:	6988      	ldr	r0, [r1, #24]
 80003e8:	f040 0020 	orr.w	r0, r0, #32
 80003ec:	6188      	str	r0, [r1, #24]
 80003ee:	6851      	ldr	r1, [r2, #4]
 80003f0:	f021 000f 	bic.w	r0, r1, #15
 80003f4:	6050      	str	r0, [r2, #4]
 80003f6:	6851      	ldr	r1, [r2, #4]
 80003f8:	f041 0003 	orr.w	r0, r1, #3
 80003fc:	6050      	str	r0, [r2, #4]
 80003fe:	68d1      	ldr	r1, [r2, #12]
 8000400:	f441 7080 	orr.w	r0, r1, #256	; 0x100
 8000404:	60d0      	str	r0, [r2, #12]
 8000406:	6819      	ldr	r1, [r3, #0]
 8000408:	f421 6070 	bic.w	r0, r1, #3840	; 0xf00
 800040c:	6018      	str	r0, [r3, #0]
 800040e:	681a      	ldr	r2, [r3, #0]
 8000410:	f442 7140 	orr.w	r1, r2, #768	; 0x300
 8000414:	6019      	str	r1, [r3, #0]
 8000416:	68d8      	ldr	r0, [r3, #12]
 8000418:	f040 0204 	orr.w	r2, r0, #4
 800041c:	60da      	str	r2, [r3, #12]
 800041e:	4770      	bx	lr
 8000420:	40021000 	andmi	r1, r2, r0
 8000424:	40010800 	andmi	r0, r1, r0, lsl #16
 8000428:	40011400 	andmi	r1, r1, r0, lsl #8

0800042c <systick_init>:
 800042c:	4b04      	ldr	r3, [pc, #16]	; (8000440 <systick_init+0x14>)
 800042e:	4805      	ldr	r0, [pc, #20]	; (8000444 <systick_init+0x18>)
 8000430:	681a      	ldr	r2, [r3, #0]
 8000432:	f022 0107 	bic.w	r1, r2, #7
 8000436:	2200      	movs	r2, #0
 8000438:	6019      	str	r1, [r3, #0]
 800043a:	6058      	str	r0, [r3, #4]
 800043c:	609a      	str	r2, [r3, #8]
 800043e:	4770      	bx	lr
 8000440:	e000e010 	and	lr, r0, r0, lsl r0
 8000444:	00015f90 	muleq	r1, r0, pc	; <UNPREDICTABLE>

08000448 <USART_DeInit>:
 8000448:	4b26      	ldr	r3, [pc, #152]	; (80004e4 <USART_DeInit+0x9c>)
 800044a:	b510      	push	{r4, lr}
 800044c:	4298      	cmp	r0, r3
 800044e:	d018      	beq.n	8000482 <USART_DeInit+0x3a>
 8000450:	4925      	ldr	r1, [pc, #148]	; (80004e8 <USART_DeInit+0xa0>)
 8000452:	4288      	cmp	r0, r1
 8000454:	d021      	beq.n	800049a <USART_DeInit+0x52>
 8000456:	4a25      	ldr	r2, [pc, #148]	; (80004ec <USART_DeInit+0xa4>)
 8000458:	4290      	cmp	r0, r2
 800045a:	d02a      	beq.n	80004b2 <USART_DeInit+0x6a>
 800045c:	4b24      	ldr	r3, [pc, #144]	; (80004f0 <USART_DeInit+0xa8>)
 800045e:	4298      	cmp	r0, r3
 8000460:	d033      	beq.n	80004ca <USART_DeInit+0x82>
 8000462:	4924      	ldr	r1, [pc, #144]	; (80004f4 <USART_DeInit+0xac>)
 8000464:	4288      	cmp	r0, r1
 8000466:	d000      	beq.n	800046a <USART_DeInit+0x22>
 8000468:	bd10      	pop	{r4, pc}
 800046a:	2101      	movs	r1, #1
 800046c:	f44f 1080 	mov.w	r0, #1048576	; 0x100000
 8000470:	f000 f8cc 	bl	800060c <RCC_APB1PeriphResetCmd>
 8000474:	f44f 1080 	mov.w	r0, #1048576	; 0x100000
 8000478:	2100      	movs	r1, #0
 800047a:	e8bd 4010 	ldmia.w	sp!, {r4, lr}
 800047e:	f000 b8c5 	b.w	800060c <RCC_APB1PeriphResetCmd>
 8000482:	2101      	movs	r1, #1
 8000484:	f44f 4080 	mov.w	r0, #16384	; 0x4000
 8000488:	f000 f8b2 	bl	80005f0 <RCC_APB2PeriphResetCmd>
 800048c:	f44f 4080 	mov.w	r0, #16384	; 0x4000
 8000490:	2100      	movs	r1, #0
 8000492:	e8bd 4010 	ldmia.w	sp!, {r4, lr}
 8000496:	f000 b8ab 	b.w	80005f0 <RCC_APB2PeriphResetCmd>
 800049a:	2101      	movs	r1, #1
 800049c:	f44f 3000 	mov.w	r0, #131072	; 0x20000
 80004a0:	f000 f8b4 	bl	800060c <RCC_APB1PeriphResetCmd>
 80004a4:	f44f 3000 	mov.w	r0, #131072	; 0x20000
 80004a8:	2100      	movs	r1, #0
 80004aa:	e8bd 4010 	ldmia.w	sp!, {r4, lr}
 80004ae:	f000 b8ad 	b.w	800060c <RCC_APB1PeriphResetCmd>
 80004b2:	2101      	movs	r1, #1
 80004b4:	f44f 2080 	mov.w	r0, #262144	; 0x40000
 80004b8:	f000 f8a8 	bl	800060c <RCC_APB1PeriphResetCmd>
 80004bc:	f44f 2080 	mov.w	r0, #262144	; 0x40000
 80004c0:	2100      	movs	r1, #0
 80004c2:	e8bd 4010 	ldmia.w	sp!, {r4, lr}
 80004c6:	f000 b8a1 	b.w	800060c <RCC_APB1PeriphResetCmd>
 80004ca:	2101      	movs	r1, #1
 80004cc:	f44f 2000 	mov.w	r0, #524288	; 0x80000
 80004d0:	f000 f89c 	bl	800060c <RCC_APB1PeriphResetCmd>
 80004d4:	f44f 2000 	mov.w	r0, #524288	; 0x80000
 80004d8:	2100      	movs	r1, #0
 80004da:	e8bd 4010 	ldmia.w	sp!, {r4, lr}
 80004de:	f000 b895 	b.w	800060c <RCC_APB1PeriphResetCmd>
 80004e2:	bf00      	nop
 80004e4:	40013800 	andmi	r3, r1, r0, lsl #16
 80004e8:	40004400 	andmi	r4, r0, r0, lsl #8
 80004ec:	40004800 	andmi	r4, r0, r0, lsl #16
 80004f0:	40004c00 	andmi	r4, r0, r0, lsl #24
 80004f4:	40005000 	andmi	r5, r0, r0

080004f8 <USART_Init>:
 80004f8:	b530      	push	{r4, r5, lr}
 80004fa:	f8b0 e010 	ldrh.w	lr, [r0, #16]
 80004fe:	f8b1 c006 	ldrh.w	ip, [r1, #6]
 8000502:	f42e 5340 	bic.w	r3, lr, #12288	; 0x3000
 8000506:	041a      	lsls	r2, r3, #16
 8000508:	0c13      	lsrs	r3, r2, #16
 800050a:	ea43 030c 	orr.w	r3, r3, ip
 800050e:	8203      	strh	r3, [r0, #16]
 8000510:	f8b0 e00c 	ldrh.w	lr, [r0, #12]
 8000514:	4604      	mov	r4, r0
 8000516:	f8b1 c004 	ldrh.w	ip, [r1, #4]
 800051a:	8908      	ldrh	r0, [r1, #8]
 800051c:	460d      	mov	r5, r1
 800051e:	f42e 52b0 	bic.w	r2, lr, #5632	; 0x1600
 8000522:	8949      	ldrh	r1, [r1, #10]
 8000524:	ea40 0e0c 	orr.w	lr, r0, ip
 8000528:	f022 030c 	bic.w	r3, r2, #12
 800052c:	041b      	lsls	r3, r3, #16
 800052e:	ea4e 0201 	orr.w	r2, lr, r1
 8000532:	0c18      	lsrs	r0, r3, #16
 8000534:	fa1f fc82 	uxth.w	ip, r2
 8000538:	ea4c 0e00 	orr.w	lr, ip, r0
 800053c:	f8a4 e00c 	strh.w	lr, [r4, #12]
 8000540:	8aa1      	ldrh	r1, [r4, #20]
 8000542:	f8b5 c00c 	ldrh.w	ip, [r5, #12]
 8000546:	f421 7240 	bic.w	r2, r1, #768	; 0x300
 800054a:	0413      	lsls	r3, r2, #16
 800054c:	0c18      	lsrs	r0, r3, #16
 800054e:	b087      	sub	sp, #28
 8000550:	ea40 0e0c 	orr.w	lr, r0, ip
 8000554:	f8a4 e014 	strh.w	lr, [r4, #20]
 8000558:	a801      	add	r0, sp, #4
 800055a:	f000 f865 	bl	8000628 <RCC_GetClocksFreq>
 800055e:	490f      	ldr	r1, [pc, #60]	; (800059c <USART_Init+0xa4>)
 8000560:	682b      	ldr	r3, [r5, #0]
 8000562:	428c      	cmp	r4, r1
 8000564:	bf0c      	ite	eq
 8000566:	9a04      	ldreq	r2, [sp, #16]
 8000568:	9a03      	ldrne	r2, [sp, #12]
 800056a:	0098      	lsls	r0, r3, #2
 800056c:	eb02 0c82 	add.w	ip, r2, r2, lsl #2
 8000570:	eb0c 018c 	add.w	r1, ip, ip, lsl #2
 8000574:	4a0a      	ldr	r2, [pc, #40]	; (80005a0 <USART_Init+0xa8>)
 8000576:	fbb1 fcf0 	udiv	ip, r1, r0
 800057a:	fba2 030c 	umull	r0, r3, r2, ip
 800057e:	2064      	movs	r0, #100	; 0x64
 8000580:	095b      	lsrs	r3, r3, #5
 8000582:	fb03 c110 	mls	r1, r3, r0, ip
 8000586:	0108      	lsls	r0, r1, #4
 8000588:	3032      	adds	r0, #50	; 0x32
 800058a:	fba2 0100 	umull	r0, r1, r2, r0
 800058e:	f3c1 1243 	ubfx	r2, r1, #5, #4
 8000592:	ea42 1303 	orr.w	r3, r2, r3, lsl #4
 8000596:	8123      	strh	r3, [r4, #8]
 8000598:	b007      	add	sp, #28
 800059a:	bd30      	pop	{r4, r5, pc}
 800059c:	40013800 	andmi	r3, r1, r0, lsl #16
 80005a0:	51eb851f 	mvnpl	r8, pc, lsl r5

080005a4 <_fputc>:
 80005a4:	4b04      	ldr	r3, [pc, #16]	; (80005b8 <_fputc+0x14>)
 80005a6:	881a      	ldrh	r2, [r3, #0]
 80005a8:	f012 0f40 	tst.w	r2, #64	; 0x40
 80005ac:	d0fb      	beq.n	80005a6 <_fputc+0x2>
 80005ae:	4b02      	ldr	r3, [pc, #8]	; (80005b8 <_fputc+0x14>)
 80005b0:	b2c1      	uxtb	r1, r0
 80005b2:	8099      	strh	r1, [r3, #4]
 80005b4:	4770      	bx	lr
 80005b6:	bf00      	nop
 80005b8:	40013800 	andmi	r3, r1, r0, lsl #16

080005bc <usart1_init>:
 80005bc:	b510      	push	{r4, lr}
 80005be:	4c0a      	ldr	r4, [pc, #40]	; (80005e8 <usart1_init+0x2c>)
 80005c0:	4620      	mov	r0, r4
 80005c2:	f7ff ff41 	bl	8000448 <USART_DeInit>
 80005c6:	4b09      	ldr	r3, [pc, #36]	; (80005ec <usart1_init+0x30>)
 80005c8:	4620      	mov	r0, r4
 80005ca:	f44f 34e1 	mov.w	r4, #115200	; 0x1c200
 80005ce:	2200      	movs	r2, #0
 80005d0:	601c      	str	r4, [r3, #0]
 80005d2:	4619      	mov	r1, r3
 80005d4:	2408      	movs	r4, #8
 80005d6:	819a      	strh	r2, [r3, #12]
 80005d8:	80da      	strh	r2, [r3, #6]
 80005da:	809a      	strh	r2, [r3, #4]
 80005dc:	815c      	strh	r4, [r3, #10]
 80005de:	811a      	strh	r2, [r3, #8]
 80005e0:	e8bd 4010 	ldmia.w	sp!, {r4, lr}
 80005e4:	f7ff bf88 	b.w	80004f8 <USART_Init>
 80005e8:	40013800 	andmi	r3, r1, r0, lsl #16
 80005ec:	20000018 	andcs	r0, r0, r8, lsl r0

080005f0 <RCC_APB2PeriphResetCmd>:
 80005f0:	b929      	cbnz	r1, 80005fe <RCC_APB2PeriphResetCmd+0xe>
 80005f2:	4b05      	ldr	r3, [pc, #20]	; (8000608 <RCC_APB2PeriphResetCmd+0x18>)
 80005f4:	68da      	ldr	r2, [r3, #12]
 80005f6:	ea22 0100 	bic.w	r1, r2, r0
 80005fa:	60d9      	str	r1, [r3, #12]
 80005fc:	4770      	bx	lr
 80005fe:	4b02      	ldr	r3, [pc, #8]	; (8000608 <RCC_APB2PeriphResetCmd+0x18>)
 8000600:	68da      	ldr	r2, [r3, #12]
 8000602:	4310      	orrs	r0, r2
 8000604:	60d8      	str	r0, [r3, #12]
 8000606:	4770      	bx	lr
 8000608:	40021000 	andmi	r1, r2, r0

0800060c <RCC_APB1PeriphResetCmd>:
 800060c:	b929      	cbnz	r1, 800061a <RCC_APB1PeriphResetCmd+0xe>
 800060e:	4b05      	ldr	r3, [pc, #20]	; (8000624 <RCC_APB1PeriphResetCmd+0x18>)
 8000610:	691a      	ldr	r2, [r3, #16]
 8000612:	ea22 0100 	bic.w	r1, r2, r0
 8000616:	6119      	str	r1, [r3, #16]
 8000618:	4770      	bx	lr
 800061a:	4b02      	ldr	r3, [pc, #8]	; (8000624 <RCC_APB1PeriphResetCmd+0x18>)
 800061c:	691a      	ldr	r2, [r3, #16]
 800061e:	4310      	orrs	r0, r2
 8000620:	6118      	str	r0, [r3, #16]
 8000622:	4770      	bx	lr
 8000624:	40021000 	andmi	r1, r2, r0

08000628 <RCC_GetClocksFreq>:
 8000628:	4b21      	ldr	r3, [pc, #132]	; (80006b0 <RCC_GetClocksFreq+0x88>)
 800062a:	b410      	push	{r4}
 800062c:	685a      	ldr	r2, [r3, #4]
 800062e:	f002 020c 	and.w	r2, r2, #12
 8000632:	2a04      	cmp	r2, #4
 8000634:	d001      	beq.n	800063a <RCC_GetClocksFreq+0x12>
 8000636:	2a08      	cmp	r2, #8
 8000638:	d023      	beq.n	8000682 <RCC_GetClocksFreq+0x5a>
 800063a:	491e      	ldr	r1, [pc, #120]	; (80006b4 <RCC_GetClocksFreq+0x8c>)
 800063c:	6001      	str	r1, [r0, #0]
 800063e:	4a1c      	ldr	r2, [pc, #112]	; (80006b0 <RCC_GetClocksFreq+0x88>)
 8000640:	4b1d      	ldr	r3, [pc, #116]	; (80006b8 <RCC_GetClocksFreq+0x90>)
 8000642:	6854      	ldr	r4, [r2, #4]
 8000644:	f3c4 1c03 	ubfx	ip, r4, #4, #4
 8000648:	f813 400c 	ldrb.w	r4, [r3, ip]
 800064c:	40e1      	lsrs	r1, r4
 800064e:	6041      	str	r1, [r0, #4]
 8000650:	6854      	ldr	r4, [r2, #4]
 8000652:	f3c4 2c02 	ubfx	ip, r4, #8, #3
 8000656:	f813 400c 	ldrb.w	r4, [r3, ip]
 800065a:	fa31 f404 	lsrs.w	r4, r1, r4
 800065e:	6084      	str	r4, [r0, #8]
 8000660:	6854      	ldr	r4, [r2, #4]
 8000662:	f3c4 24c2 	ubfx	r4, r4, #11, #3
 8000666:	5d1c      	ldrb	r4, [r3, r4]
 8000668:	40e1      	lsrs	r1, r4
 800066a:	60c1      	str	r1, [r0, #12]
 800066c:	6852      	ldr	r2, [r2, #4]
 800066e:	f3c2 3281 	ubfx	r2, r2, #14, #2
 8000672:	189b      	adds	r3, r3, r2
 8000674:	f893 c010 	ldrb.w	ip, [r3, #16]
 8000678:	fbb1 f1fc 	udiv	r1, r1, ip
 800067c:	6101      	str	r1, [r0, #16]
 800067e:	bc10      	pop	{r4}
 8000680:	4770      	bx	lr
 8000682:	685a      	ldr	r2, [r3, #4]
 8000684:	685c      	ldr	r4, [r3, #4]
 8000686:	f3c2 4183 	ubfx	r1, r2, #18, #4
 800068a:	3102      	adds	r1, #2
 800068c:	f414 3f80 	tst.w	r4, #65536	; 0x10000
 8000690:	d008      	beq.n	80006a4 <RCC_GetClocksFreq+0x7c>
 8000692:	685b      	ldr	r3, [r3, #4]
 8000694:	f413 3f00 	tst.w	r3, #131072	; 0x20000
 8000698:	d104      	bne.n	80006a4 <RCC_GetClocksFreq+0x7c>
 800069a:	4a06      	ldr	r2, [pc, #24]	; (80006b4 <RCC_GetClocksFreq+0x8c>)
 800069c:	fb02 f101 	mul.w	r1, r2, r1
 80006a0:	6001      	str	r1, [r0, #0]
 80006a2:	e7cc      	b.n	800063e <RCC_GetClocksFreq+0x16>
 80006a4:	4c05      	ldr	r4, [pc, #20]	; (80006bc <RCC_GetClocksFreq+0x94>)
 80006a6:	fb04 f101 	mul.w	r1, r4, r1
 80006aa:	6001      	str	r1, [r0, #0]
 80006ac:	e7c7      	b.n	800063e <RCC_GetClocksFreq+0x16>
 80006ae:	bf00      	nop
 80006b0:	40021000 	andmi	r1, r2, r0
 80006b4:	007a1200 	rsbseq	r1, sl, r0, lsl #4
 80006b8:	20000000 	andcs	r0, r0, r0
 80006bc:	003d0900 	eorseq	r0, sp, r0, lsl #18
