
./elf_output/stm32f103.elf:     file format elf32-littlearm


Disassembly of section .isr_vector:

08000000 <g_pfnVectors>:
 8000000:	20005000 	andcs	r5, r0, r0
 8000004:	0800086d 	stmdaeq	r0, {r0, r2, r3, r5, r6, fp}
 8000008:	080008b1 	stmdaeq	r0, {r0, r4, r5, r7, fp}
 800000c:	080008b1 	stmdaeq	r0, {r0, r4, r5, r7, fp}
 8000010:	080008b1 	stmdaeq	r0, {r0, r4, r5, r7, fp}
 8000014:	080008b1 	stmdaeq	r0, {r0, r4, r5, r7, fp}
 8000018:	080008b1 	stmdaeq	r0, {r0, r4, r5, r7, fp}
	...
 800002c:	080008b1 	stmdaeq	r0, {r0, r4, r5, r7, fp}
 8000030:	080008b1 	stmdaeq	r0, {r0, r4, r5, r7, fp}
 8000034:	00000000 	andeq	r0, r0, r0
 8000038:	080008b1 	stmdaeq	r0, {r0, r4, r5, r7, fp}
 800003c:	080008b3 	stmdaeq	r0, {r0, r1, r4, r5, r7, fp}
 8000040:	080008b1 	stmdaeq	r0, {r0, r4, r5, r7, fp}
 8000044:	080008b1 	stmdaeq	r0, {r0, r4, r5, r7, fp}
 8000048:	080008b1 	stmdaeq	r0, {r0, r4, r5, r7, fp}
 800004c:	080008b1 	stmdaeq	r0, {r0, r4, r5, r7, fp}
 8000050:	080008b1 	stmdaeq	r0, {r0, r4, r5, r7, fp}
 8000054:	080008b1 	stmdaeq	r0, {r0, r4, r5, r7, fp}
 8000058:	080008b1 	stmdaeq	r0, {r0, r4, r5, r7, fp}
 800005c:	080008b1 	stmdaeq	r0, {r0, r4, r5, r7, fp}
 8000060:	080008b1 	stmdaeq	r0, {r0, r4, r5, r7, fp}
 8000064:	080008b1 	stmdaeq	r0, {r0, r4, r5, r7, fp}
 8000068:	080008b1 	stmdaeq	r0, {r0, r4, r5, r7, fp}
 800006c:	080008b1 	stmdaeq	r0, {r0, r4, r5, r7, fp}
 8000070:	080008b1 	stmdaeq	r0, {r0, r4, r5, r7, fp}
 8000074:	080008b1 	stmdaeq	r0, {r0, r4, r5, r7, fp}
 8000078:	080008b1 	stmdaeq	r0, {r0, r4, r5, r7, fp}
 800007c:	080008b1 	stmdaeq	r0, {r0, r4, r5, r7, fp}
 8000080:	080008b1 	stmdaeq	r0, {r0, r4, r5, r7, fp}
 8000084:	080008b1 	stmdaeq	r0, {r0, r4, r5, r7, fp}
 8000088:	080008b1 	stmdaeq	r0, {r0, r4, r5, r7, fp}
 800008c:	080008b1 	stmdaeq	r0, {r0, r4, r5, r7, fp}
 8000090:	080008b1 	stmdaeq	r0, {r0, r4, r5, r7, fp}
 8000094:	080008b1 	stmdaeq	r0, {r0, r4, r5, r7, fp}
 8000098:	080008b1 	stmdaeq	r0, {r0, r4, r5, r7, fp}
 800009c:	080008b1 	stmdaeq	r0, {r0, r4, r5, r7, fp}
 80000a0:	080008b1 	stmdaeq	r0, {r0, r4, r5, r7, fp}
 80000a4:	080008b1 	stmdaeq	r0, {r0, r4, r5, r7, fp}
 80000a8:	080008b1 	stmdaeq	r0, {r0, r4, r5, r7, fp}
 80000ac:	080008b1 	stmdaeq	r0, {r0, r4, r5, r7, fp}
 80000b0:	080008b1 	stmdaeq	r0, {r0, r4, r5, r7, fp}
 80000b4:	080008b1 	stmdaeq	r0, {r0, r4, r5, r7, fp}
 80000b8:	080008b1 	stmdaeq	r0, {r0, r4, r5, r7, fp}
 80000bc:	080008b1 	stmdaeq	r0, {r0, r4, r5, r7, fp}
 80000c0:	080008b1 	stmdaeq	r0, {r0, r4, r5, r7, fp}
 80000c4:	080008b1 	stmdaeq	r0, {r0, r4, r5, r7, fp}
 80000c8:	080008b1 	stmdaeq	r0, {r0, r4, r5, r7, fp}
 80000cc:	080008b1 	stmdaeq	r0, {r0, r4, r5, r7, fp}
 80000d0:	080008b1 	stmdaeq	r0, {r0, r4, r5, r7, fp}
 80000d4:	080008b7 	stmdaeq	r0, {r0, r1, r2, r4, r5, r7, fp}
 80000d8:	080008b1 	stmdaeq	r0, {r0, r4, r5, r7, fp}
 80000dc:	080008b1 	stmdaeq	r0, {r0, r4, r5, r7, fp}
 80000e0:	080008b1 	stmdaeq	r0, {r0, r4, r5, r7, fp}
 80000e4:	080008b1 	stmdaeq	r0, {r0, r4, r5, r7, fp}
 80000e8:	080008b1 	stmdaeq	r0, {r0, r4, r5, r7, fp}
 80000ec:	080008b1 	stmdaeq	r0, {r0, r4, r5, r7, fp}
 80000f0:	080008b1 	stmdaeq	r0, {r0, r4, r5, r7, fp}
 80000f4:	080008b1 	stmdaeq	r0, {r0, r4, r5, r7, fp}
 80000f8:	080008b1 	stmdaeq	r0, {r0, r4, r5, r7, fp}
 80000fc:	080008b1 	stmdaeq	r0, {r0, r4, r5, r7, fp}
 8000100:	080008b1 	stmdaeq	r0, {r0, r4, r5, r7, fp}
 8000104:	080008b1 	stmdaeq	r0, {r0, r4, r5, r7, fp}
 8000108:	080008b1 	stmdaeq	r0, {r0, r4, r5, r7, fp}
 800010c:	080008b1 	stmdaeq	r0, {r0, r4, r5, r7, fp}
 8000110:	080008b1 	stmdaeq	r0, {r0, r4, r5, r7, fp}
 8000114:	080008b1 	stmdaeq	r0, {r0, r4, r5, r7, fp}
 8000118:	080008b1 	stmdaeq	r0, {r0, r4, r5, r7, fp}
 800011c:	080008b1 	stmdaeq	r0, {r0, r4, r5, r7, fp}
 8000120:	080008b1 	stmdaeq	r0, {r0, r4, r5, r7, fp}
 8000124:	080008b1 	stmdaeq	r0, {r0, r4, r5, r7, fp}
 8000128:	080008b1 	stmdaeq	r0, {r0, r4, r5, r7, fp}
 800012c:	080008b1 	stmdaeq	r0, {r0, r4, r5, r7, fp}
	...
 80001e0:	f1e0f85f 			; <UNDEFINED> instruction: 0xf1e0f85f

Disassembly of section .text:

080001e4 <_main>:
 80001e4:	b510      	push	{r4, lr}
 80001e6:	4814      	ldr	r0, [pc, #80]	; (8000238 <_main+0x54>)
 80001e8:	f000 fcdc 	bl	8000ba4 <USART_Configuration>
 80001ec:	4813      	ldr	r0, [pc, #76]	; (800023c <_main+0x58>)
 80001ee:	f000 fd1b 	bl	8000c28 <printfs>
 80001f2:	f000 f9f3 	bl	80005dc <LED_Init>
 80001f6:	4812      	ldr	r0, [pc, #72]	; (8000240 <_main+0x5c>)
 80001f8:	f000 fd16 	bl	8000c28 <printfs>
 80001fc:	f000 fbe6 	bl	80009cc <systick_init>
 8000200:	4810      	ldr	r0, [pc, #64]	; (8000244 <_main+0x60>)
 8000202:	f000 fd11 	bl	8000c28 <printfs>
 8000206:	f000 fbef 	bl	80009e8 <tft_init>
 800020a:	480f      	ldr	r0, [pc, #60]	; (8000248 <_main+0x64>)
 800020c:	f000 fd0c 	bl	8000c28 <printfs>
 8000210:	f000 fc18 	bl	8000a44 <touch_init>
 8000214:	480d      	ldr	r0, [pc, #52]	; (800024c <_main+0x68>)
 8000216:	f000 fd07 	bl	8000c28 <printfs>
 800021a:	f000 f9a1 	bl	8000560 <NVIC_Init>
 800021e:	480c      	ldr	r0, [pc, #48]	; (8000250 <_main+0x6c>)
 8000220:	f000 fd02 	bl	8000c28 <printfs>
 8000224:	4b0b      	ldr	r3, [pc, #44]	; (8000254 <_main+0x70>)
 8000226:	480c      	ldr	r0, [pc, #48]	; (8000258 <_main+0x74>)
 8000228:	6819      	ldr	r1, [r3, #0]
 800022a:	f041 0201 	orr.w	r2, r1, #1
 800022e:	601a      	str	r2, [r3, #0]
 8000230:	e8bd 4010 	ldmia.w	sp!, {r4, lr}
 8000234:	f000 bcf8 	b.w	8000c28 <printfs>
 8000238:	40013800 	andmi	r3, r1, r0, lsl #16
 800023c:	08000c7c 	stmdaeq	r0, {r2, r3, r4, r5, r6, sl, fp}
 8000240:	08000ca8 	stmdaeq	r0, {r3, r5, r7, sl, fp}
 8000244:	08000cdc 	stmdaeq	r0, {r2, r3, r4, r6, r7, sl, fp}
 8000248:	08000d0c 	stmdaeq	r0, {r2, r3, r8, sl, fp}
 800024c:	08000d40 	stmdaeq	r0, {r6, r8, sl, fp}
 8000250:	08000d6c 	stmdaeq	r0, {r2, r3, r5, r6, r8, sl, fp}
 8000254:	e000e010 	and	lr, r0, r0, lsl r0
 8000258:	08000db0 	stmdaeq	r0, {r4, r5, r7, r8, sl, fp}

0800025c <GPIO_Init>:
 800025c:	688b      	ldr	r3, [r1, #8]
 800025e:	b430      	push	{r4, r5}
 8000260:	f013 0f10 	tst.w	r3, #16
 8000264:	bf18      	it	ne
 8000266:	684a      	ldrne	r2, [r1, #4]
 8000268:	f003 040f 	and.w	r4, r3, #15
 800026c:	bf18      	it	ne
 800026e:	4314      	orrne	r4, r2
 8000270:	880a      	ldrh	r2, [r1, #0]
 8000272:	f012 0fff 	tst.w	r2, #255	; 0xff
 8000276:	d029      	beq.n	80002cc <GPIO_Init+0x70>
 8000278:	f002 0501 	and.w	r5, r2, #1
 800027c:	6801      	ldr	r1, [r0, #0]
 800027e:	2d00      	cmp	r5, #0
 8000280:	f040 80dd 	bne.w	800043e <GPIO_Init+0x1e2>
 8000284:	f002 0502 	and.w	r5, r2, #2
 8000288:	2d00      	cmp	r5, #0
 800028a:	f040 80c2 	bne.w	8000412 <GPIO_Init+0x1b6>
 800028e:	f002 0504 	and.w	r5, r2, #4
 8000292:	2d00      	cmp	r5, #0
 8000294:	f040 80c8 	bne.w	8000428 <GPIO_Init+0x1cc>
 8000298:	f002 0508 	and.w	r5, r2, #8
 800029c:	2d00      	cmp	r5, #0
 800029e:	f040 808c 	bne.w	80003ba <GPIO_Init+0x15e>
 80002a2:	f002 0510 	and.w	r5, r2, #16
 80002a6:	2d00      	cmp	r5, #0
 80002a8:	f040 8092 	bne.w	80003d0 <GPIO_Init+0x174>
 80002ac:	f002 0520 	and.w	r5, r2, #32
 80002b0:	2d00      	cmp	r5, #0
 80002b2:	f040 8098 	bne.w	80003e6 <GPIO_Init+0x18a>
 80002b6:	f002 0540 	and.w	r5, r2, #64	; 0x40
 80002ba:	2d00      	cmp	r5, #0
 80002bc:	f040 809e 	bne.w	80003fc <GPIO_Init+0x1a0>
 80002c0:	f002 0580 	and.w	r5, r2, #128	; 0x80
 80002c4:	2d00      	cmp	r5, #0
 80002c6:	f040 80c5 	bne.w	8000454 <GPIO_Init+0x1f8>
 80002ca:	6001      	str	r1, [r0, #0]
 80002cc:	2aff      	cmp	r2, #255	; 0xff
 80002ce:	d920      	bls.n	8000312 <GPIO_Init+0xb6>
 80002d0:	f402 7580 	and.w	r5, r2, #256	; 0x100
 80002d4:	6841      	ldr	r1, [r0, #4]
 80002d6:	2d00      	cmp	r5, #0
 80002d8:	d126      	bne.n	8000328 <GPIO_Init+0xcc>
 80002da:	f402 7500 	and.w	r5, r2, #512	; 0x200
 80002de:	2d00      	cmp	r5, #0
 80002e0:	d12d      	bne.n	800033e <GPIO_Init+0xe2>
 80002e2:	f402 6580 	and.w	r5, r2, #1024	; 0x400
 80002e6:	2d00      	cmp	r5, #0
 80002e8:	d134      	bne.n	8000354 <GPIO_Init+0xf8>
 80002ea:	f402 6500 	and.w	r5, r2, #2048	; 0x800
 80002ee:	2d00      	cmp	r5, #0
 80002f0:	d13b      	bne.n	800036a <GPIO_Init+0x10e>
 80002f2:	f402 5580 	and.w	r5, r2, #4096	; 0x1000
 80002f6:	2d00      	cmp	r5, #0
 80002f8:	d141      	bne.n	800037e <GPIO_Init+0x122>
 80002fa:	f402 5500 	and.w	r5, r2, #8192	; 0x2000
 80002fe:	2d00      	cmp	r5, #0
 8000300:	d147      	bne.n	8000392 <GPIO_Init+0x136>
 8000302:	f402 4580 	and.w	r5, r2, #16384	; 0x4000
 8000306:	2d00      	cmp	r5, #0
 8000308:	d14d      	bne.n	80003a6 <GPIO_Init+0x14a>
 800030a:	f402 4200 	and.w	r2, r2, #32768	; 0x8000
 800030e:	b912      	cbnz	r2, 8000316 <GPIO_Init+0xba>
 8000310:	6041      	str	r1, [r0, #4]
 8000312:	bc30      	pop	{r4, r5}
 8000314:	4770      	bx	lr
 8000316:	2b28      	cmp	r3, #40	; 0x28
 8000318:	f364 711f 	bfi	r1, r4, #28, #4
 800031c:	f000 80b0 	beq.w	8000480 <GPIO_Init+0x224>
 8000320:	2b48      	cmp	r3, #72	; 0x48
 8000322:	bf08      	it	eq
 8000324:	6102      	streq	r2, [r0, #16]
 8000326:	e7f3      	b.n	8000310 <GPIO_Init+0xb4>
 8000328:	f021 0c0f 	bic.w	ip, r1, #15
 800032c:	2b28      	cmp	r3, #40	; 0x28
 800032e:	ea44 010c 	orr.w	r1, r4, ip
 8000332:	f000 80a3 	beq.w	800047c <GPIO_Init+0x220>
 8000336:	2b48      	cmp	r3, #72	; 0x48
 8000338:	d1cf      	bne.n	80002da <GPIO_Init+0x7e>
 800033a:	6105      	str	r5, [r0, #16]
 800033c:	e7cd      	b.n	80002da <GPIO_Init+0x7e>
 800033e:	f021 01f0 	bic.w	r1, r1, #240	; 0xf0
 8000342:	2b28      	cmp	r3, #40	; 0x28
 8000344:	ea41 1104 	orr.w	r1, r1, r4, lsl #4
 8000348:	f000 8096 	beq.w	8000478 <GPIO_Init+0x21c>
 800034c:	2b48      	cmp	r3, #72	; 0x48
 800034e:	d1c8      	bne.n	80002e2 <GPIO_Init+0x86>
 8000350:	6105      	str	r5, [r0, #16]
 8000352:	e7c6      	b.n	80002e2 <GPIO_Init+0x86>
 8000354:	f421 6c70 	bic.w	ip, r1, #3840	; 0xf00
 8000358:	2b28      	cmp	r3, #40	; 0x28
 800035a:	ea4c 2104 	orr.w	r1, ip, r4, lsl #8
 800035e:	f000 8089 	beq.w	8000474 <GPIO_Init+0x218>
 8000362:	2b48      	cmp	r3, #72	; 0x48
 8000364:	d1c1      	bne.n	80002ea <GPIO_Init+0x8e>
 8000366:	6105      	str	r5, [r0, #16]
 8000368:	e7bf      	b.n	80002ea <GPIO_Init+0x8e>
 800036a:	f421 4170 	bic.w	r1, r1, #61440	; 0xf000
 800036e:	2b28      	cmp	r3, #40	; 0x28
 8000370:	ea41 3104 	orr.w	r1, r1, r4, lsl #12
 8000374:	d07c      	beq.n	8000470 <GPIO_Init+0x214>
 8000376:	2b48      	cmp	r3, #72	; 0x48
 8000378:	d1bb      	bne.n	80002f2 <GPIO_Init+0x96>
 800037a:	6105      	str	r5, [r0, #16]
 800037c:	e7b9      	b.n	80002f2 <GPIO_Init+0x96>
 800037e:	f421 2c70 	bic.w	ip, r1, #983040	; 0xf0000
 8000382:	2b28      	cmp	r3, #40	; 0x28
 8000384:	ea4c 4104 	orr.w	r1, ip, r4, lsl #16
 8000388:	d070      	beq.n	800046c <GPIO_Init+0x210>
 800038a:	2b48      	cmp	r3, #72	; 0x48
 800038c:	d1b5      	bne.n	80002fa <GPIO_Init+0x9e>
 800038e:	6105      	str	r5, [r0, #16]
 8000390:	e7b3      	b.n	80002fa <GPIO_Init+0x9e>
 8000392:	f421 0170 	bic.w	r1, r1, #15728640	; 0xf00000
 8000396:	2b28      	cmp	r3, #40	; 0x28
 8000398:	ea41 5104 	orr.w	r1, r1, r4, lsl #20
 800039c:	d064      	beq.n	8000468 <GPIO_Init+0x20c>
 800039e:	2b48      	cmp	r3, #72	; 0x48
 80003a0:	d1af      	bne.n	8000302 <GPIO_Init+0xa6>
 80003a2:	6105      	str	r5, [r0, #16]
 80003a4:	e7ad      	b.n	8000302 <GPIO_Init+0xa6>
 80003a6:	f021 6c70 	bic.w	ip, r1, #251658240	; 0xf000000
 80003aa:	2b28      	cmp	r3, #40	; 0x28
 80003ac:	ea4c 6104 	orr.w	r1, ip, r4, lsl #24
 80003b0:	d058      	beq.n	8000464 <GPIO_Init+0x208>
 80003b2:	2b48      	cmp	r3, #72	; 0x48
 80003b4:	d1a9      	bne.n	800030a <GPIO_Init+0xae>
 80003b6:	6105      	str	r5, [r0, #16]
 80003b8:	e7a7      	b.n	800030a <GPIO_Init+0xae>
 80003ba:	f421 4c70 	bic.w	ip, r1, #61440	; 0xf000
 80003be:	2b28      	cmp	r3, #40	; 0x28
 80003c0:	ea4c 3104 	orr.w	r1, ip, r4, lsl #12
 80003c4:	d068      	beq.n	8000498 <GPIO_Init+0x23c>
 80003c6:	2b48      	cmp	r3, #72	; 0x48
 80003c8:	f47f af6b 	bne.w	80002a2 <GPIO_Init+0x46>
 80003cc:	6105      	str	r5, [r0, #16]
 80003ce:	e768      	b.n	80002a2 <GPIO_Init+0x46>
 80003d0:	f421 2170 	bic.w	r1, r1, #983040	; 0xf0000
 80003d4:	2b28      	cmp	r3, #40	; 0x28
 80003d6:	ea41 4104 	orr.w	r1, r1, r4, lsl #16
 80003da:	d05b      	beq.n	8000494 <GPIO_Init+0x238>
 80003dc:	2b48      	cmp	r3, #72	; 0x48
 80003de:	f47f af65 	bne.w	80002ac <GPIO_Init+0x50>
 80003e2:	6105      	str	r5, [r0, #16]
 80003e4:	e762      	b.n	80002ac <GPIO_Init+0x50>
 80003e6:	f421 0c70 	bic.w	ip, r1, #15728640	; 0xf00000
 80003ea:	2b28      	cmp	r3, #40	; 0x28
 80003ec:	ea4c 5104 	orr.w	r1, ip, r4, lsl #20
 80003f0:	d056      	beq.n	80004a0 <GPIO_Init+0x244>
 80003f2:	2b48      	cmp	r3, #72	; 0x48
 80003f4:	f47f af5f 	bne.w	80002b6 <GPIO_Init+0x5a>
 80003f8:	6105      	str	r5, [r0, #16]
 80003fa:	e75c      	b.n	80002b6 <GPIO_Init+0x5a>
 80003fc:	f021 6170 	bic.w	r1, r1, #251658240	; 0xf000000
 8000400:	2b28      	cmp	r3, #40	; 0x28
 8000402:	ea41 6104 	orr.w	r1, r1, r4, lsl #24
 8000406:	d049      	beq.n	800049c <GPIO_Init+0x240>
 8000408:	2b48      	cmp	r3, #72	; 0x48
 800040a:	f47f af59 	bne.w	80002c0 <GPIO_Init+0x64>
 800040e:	6105      	str	r5, [r0, #16]
 8000410:	e756      	b.n	80002c0 <GPIO_Init+0x64>
 8000412:	f021 0cf0 	bic.w	ip, r1, #240	; 0xf0
 8000416:	2b28      	cmp	r3, #40	; 0x28
 8000418:	ea4c 1104 	orr.w	r1, ip, r4, lsl #4
 800041c:	d038      	beq.n	8000490 <GPIO_Init+0x234>
 800041e:	2b48      	cmp	r3, #72	; 0x48
 8000420:	f47f af35 	bne.w	800028e <GPIO_Init+0x32>
 8000424:	6105      	str	r5, [r0, #16]
 8000426:	e732      	b.n	800028e <GPIO_Init+0x32>
 8000428:	f421 6170 	bic.w	r1, r1, #3840	; 0xf00
 800042c:	2b28      	cmp	r3, #40	; 0x28
 800042e:	ea41 2104 	orr.w	r1, r1, r4, lsl #8
 8000432:	d02b      	beq.n	800048c <GPIO_Init+0x230>
 8000434:	2b48      	cmp	r3, #72	; 0x48
 8000436:	f47f af2f 	bne.w	8000298 <GPIO_Init+0x3c>
 800043a:	6105      	str	r5, [r0, #16]
 800043c:	e72c      	b.n	8000298 <GPIO_Init+0x3c>
 800043e:	f021 010f 	bic.w	r1, r1, #15
 8000442:	2b28      	cmp	r3, #40	; 0x28
 8000444:	ea44 0101 	orr.w	r1, r4, r1
 8000448:	d01c      	beq.n	8000484 <GPIO_Init+0x228>
 800044a:	2b48      	cmp	r3, #72	; 0x48
 800044c:	f47f af1a 	bne.w	8000284 <GPIO_Init+0x28>
 8000450:	6105      	str	r5, [r0, #16]
 8000452:	e717      	b.n	8000284 <GPIO_Init+0x28>
 8000454:	2b28      	cmp	r3, #40	; 0x28
 8000456:	f364 711f 	bfi	r1, r4, #28, #4
 800045a:	d015      	beq.n	8000488 <GPIO_Init+0x22c>
 800045c:	2b48      	cmp	r3, #72	; 0x48
 800045e:	bf08      	it	eq
 8000460:	6105      	streq	r5, [r0, #16]
 8000462:	e732      	b.n	80002ca <GPIO_Init+0x6e>
 8000464:	6145      	str	r5, [r0, #20]
 8000466:	e750      	b.n	800030a <GPIO_Init+0xae>
 8000468:	6145      	str	r5, [r0, #20]
 800046a:	e74a      	b.n	8000302 <GPIO_Init+0xa6>
 800046c:	6145      	str	r5, [r0, #20]
 800046e:	e744      	b.n	80002fa <GPIO_Init+0x9e>
 8000470:	6145      	str	r5, [r0, #20]
 8000472:	e73e      	b.n	80002f2 <GPIO_Init+0x96>
 8000474:	6145      	str	r5, [r0, #20]
 8000476:	e738      	b.n	80002ea <GPIO_Init+0x8e>
 8000478:	6145      	str	r5, [r0, #20]
 800047a:	e732      	b.n	80002e2 <GPIO_Init+0x86>
 800047c:	6145      	str	r5, [r0, #20]
 800047e:	e72c      	b.n	80002da <GPIO_Init+0x7e>
 8000480:	6142      	str	r2, [r0, #20]
 8000482:	e745      	b.n	8000310 <GPIO_Init+0xb4>
 8000484:	6145      	str	r5, [r0, #20]
 8000486:	e6fd      	b.n	8000284 <GPIO_Init+0x28>
 8000488:	6145      	str	r5, [r0, #20]
 800048a:	e71e      	b.n	80002ca <GPIO_Init+0x6e>
 800048c:	6145      	str	r5, [r0, #20]
 800048e:	e703      	b.n	8000298 <GPIO_Init+0x3c>
 8000490:	6145      	str	r5, [r0, #20]
 8000492:	e6fc      	b.n	800028e <GPIO_Init+0x32>
 8000494:	6145      	str	r5, [r0, #20]
 8000496:	e709      	b.n	80002ac <GPIO_Init+0x50>
 8000498:	6145      	str	r5, [r0, #20]
 800049a:	e702      	b.n	80002a2 <GPIO_Init+0x46>
 800049c:	6145      	str	r5, [r0, #20]
 800049e:	e70f      	b.n	80002c0 <GPIO_Init+0x64>
 80004a0:	6145      	str	r5, [r0, #20]
 80004a2:	e708      	b.n	80002b6 <GPIO_Init+0x5a>

080004a4 <JTAG_Set>:
 80004a4:	4a07      	ldr	r2, [pc, #28]	; (80004c4 <JTAG_Set+0x20>)
 80004a6:	4b08      	ldr	r3, [pc, #32]	; (80004c8 <JTAG_Set+0x24>)
 80004a8:	6991      	ldr	r1, [r2, #24]
 80004aa:	f041 0101 	orr.w	r1, r1, #1
 80004ae:	6191      	str	r1, [r2, #24]
 80004b0:	6859      	ldr	r1, [r3, #4]
 80004b2:	f021 62e0 	bic.w	r2, r1, #117440512	; 0x7000000
 80004b6:	605a      	str	r2, [r3, #4]
 80004b8:	6859      	ldr	r1, [r3, #4]
 80004ba:	ea41 6240 	orr.w	r2, r1, r0, lsl #25
 80004be:	605a      	str	r2, [r3, #4]
 80004c0:	4770      	bx	lr
 80004c2:	bf00      	nop
 80004c4:	40021000 	andmi	r1, r2, r0
 80004c8:	40010000 	andmi	r0, r1, r0

080004cc <set_io>:
 80004cc:	b500      	push	{lr}
 80004ce:	b085      	sub	sp, #20
 80004d0:	9103      	str	r1, [sp, #12]
 80004d2:	a901      	add	r1, sp, #4
 80004d4:	f8ad 2004 	strh.w	r2, [sp, #4]
 80004d8:	9302      	str	r3, [sp, #8]
 80004da:	f7ff febf 	bl	800025c <GPIO_Init>
 80004de:	b005      	add	sp, #20
 80004e0:	bd00      	pop	{pc}
 80004e2:	bf00      	nop

080004e4 <nvic_group>:
 80004e4:	b4f0      	push	{r4, r5, r6, r7}
 80004e6:	270f      	movs	r7, #15
 80004e8:	fa57 f403 	asrs.w	r4, r7, r3
 80004ec:	f1c3 0504 	rsb	r5, r3, #4
 80004f0:	40a8      	lsls	r0, r5
 80004f2:	4f19      	ldr	r7, [pc, #100]	; (8000558 <nvic_group+0x74>)
 80004f4:	f64f 0cff 	movw	ip, #63743	; 0xf8ff
 80004f8:	68fd      	ldr	r5, [r7, #12]
 80004fa:	43db      	mvns	r3, r3
 80004fc:	ea05 060c 	and.w	r6, r5, ip
 8000500:	f046 6cbe 	orr.w	ip, r6, #99614720	; 0x5f00000
 8000504:	f003 0307 	and.w	r3, r3, #7
 8000508:	f44c 2620 	orr.w	r6, ip, #655360	; 0xa0000
 800050c:	400c      	ands	r4, r1
 800050e:	ea46 2603 	orr.w	r6, r6, r3, lsl #8
 8000512:	ea44 0000 	orr.w	r0, r4, r0
 8000516:	2a1f      	cmp	r2, #31
 8000518:	60fe      	str	r6, [r7, #12]
 800051a:	f000 000f 	and.w	r0, r0, #15
 800051e:	dd13      	ble.n	8000548 <nvic_group+0x64>
 8000520:	f1a2 0320 	sub.w	r3, r2, #32
 8000524:	2401      	movs	r4, #1
 8000526:	fa14 f103 	lsls.w	r1, r4, r3
 800052a:	4b0c      	ldr	r3, [pc, #48]	; (800055c <nvic_group+0x78>)
 800052c:	685c      	ldr	r4, [r3, #4]
 800052e:	4321      	orrs	r1, r4
 8000530:	6059      	str	r1, [r3, #4]
 8000532:	4b0a      	ldr	r3, [pc, #40]	; (800055c <nvic_group+0x78>)
 8000534:	eb02 0c03 	add.w	ip, r2, r3
 8000538:	f89c 1300 	ldrb.w	r1, [ip, #768]	; 0x300
 800053c:	ea41 1200 	orr.w	r2, r1, r0, lsl #4
 8000540:	f88c 2300 	strb.w	r2, [ip, #768]	; 0x300
 8000544:	bcf0      	pop	{r4, r5, r6, r7}
 8000546:	4770      	bx	lr
 8000548:	2401      	movs	r4, #1
 800054a:	fa14 f102 	lsls.w	r1, r4, r2
 800054e:	4b03      	ldr	r3, [pc, #12]	; (800055c <nvic_group+0x78>)
 8000550:	681c      	ldr	r4, [r3, #0]
 8000552:	4321      	orrs	r1, r4
 8000554:	6019      	str	r1, [r3, #0]
 8000556:	e7ec      	b.n	8000532 <nvic_group+0x4e>
 8000558:	e000ed00 	and	lr, r0, r0, lsl #26
 800055c:	e000e100 	and	lr, r0, r0, lsl #2

08000560 <NVIC_Init>:
 8000560:	2003      	movs	r0, #3
 8000562:	b508      	push	{r3, lr}
 8000564:	4601      	mov	r1, r0
 8000566:	2225      	movs	r2, #37	; 0x25
 8000568:	2302      	movs	r3, #2
 800056a:	f7ff ffbb 	bl	80004e4 <nvic_group>
 800056e:	4b03      	ldr	r3, [pc, #12]	; (800057c <NVIC_Init+0x1c>)
 8000570:	6818      	ldr	r0, [r3, #0]
 8000572:	f040 0202 	orr.w	r2, r0, #2
 8000576:	601a      	str	r2, [r3, #0]
 8000578:	bd08      	pop	{r3, pc}
 800057a:	bf00      	nop
 800057c:	e000e010 	and	lr, r0, r0, lsl r0

08000580 <systick_Handle>:
 8000580:	4b0e      	ldr	r3, [pc, #56]	; (80005bc <systick_Handle+0x3c>)
 8000582:	681a      	ldr	r2, [r3, #0]
 8000584:	2a64      	cmp	r2, #100	; 0x64
 8000586:	d00c      	beq.n	80005a2 <systick_Handle+0x22>
 8000588:	6818      	ldr	r0, [r3, #0]
 800058a:	4a0c      	ldr	r2, [pc, #48]	; (80005bc <systick_Handle+0x3c>)
 800058c:	2864      	cmp	r0, #100	; 0x64
 800058e:	d104      	bne.n	800059a <systick_Handle+0x1a>
 8000590:	6891      	ldr	r1, [r2, #8]
 8000592:	2000      	movs	r0, #0
 8000594:	3101      	adds	r1, #1
 8000596:	6010      	str	r0, [r2, #0]
 8000598:	6091      	str	r1, [r2, #8]
 800059a:	6818      	ldr	r0, [r3, #0]
 800059c:	1c42      	adds	r2, r0, #1
 800059e:	601a      	str	r2, [r3, #0]
 80005a0:	4770      	bx	lr
 80005a2:	7918      	ldrb	r0, [r3, #4]
 80005a4:	b120      	cbz	r0, 80005b0 <systick_Handle+0x30>
 80005a6:	4906      	ldr	r1, [pc, #24]	; (80005c0 <systick_Handle+0x40>)
 80005a8:	2200      	movs	r2, #0
 80005aa:	711a      	strb	r2, [r3, #4]
 80005ac:	600a      	str	r2, [r1, #0]
 80005ae:	e7eb      	b.n	8000588 <systick_Handle+0x8>
 80005b0:	4803      	ldr	r0, [pc, #12]	; (80005c0 <systick_Handle+0x40>)
 80005b2:	2101      	movs	r1, #1
 80005b4:	7119      	strb	r1, [r3, #4]
 80005b6:	6001      	str	r1, [r0, #0]
 80005b8:	e7e6      	b.n	8000588 <systick_Handle+0x8>
 80005ba:	bf00      	nop
 80005bc:	20000014 	andcs	r0, r0, r4, lsl r0
 80005c0:	42228188 	eormi	r8, r2, #136, 2	; 0x22

080005c4 <USART1_Handler>:
 80005c4:	4a04      	ldr	r2, [pc, #16]	; (80005d8 <USART1_Handler+0x14>)
 80005c6:	f8b2 c000 	ldrh.w	ip, [r2]
 80005ca:	f02c 0140 	bic.w	r1, ip, #64	; 0x40
 80005ce:	0408      	lsls	r0, r1, #16
 80005d0:	0c03      	lsrs	r3, r0, #16
 80005d2:	8013      	strh	r3, [r2, #0]
 80005d4:	4770      	bx	lr
 80005d6:	bf00      	nop
 80005d8:	40013800 	andmi	r3, r1, r0, lsl #16

080005dc <LED_Init>:
 80005dc:	4a09      	ldr	r2, [pc, #36]	; (8000604 <LED_Init+0x28>)
 80005de:	4b0a      	ldr	r3, [pc, #40]	; (8000608 <LED_Init+0x2c>)
 80005e0:	6991      	ldr	r1, [r2, #24]
 80005e2:	f041 0020 	orr.w	r0, r1, #32
 80005e6:	6190      	str	r0, [r2, #24]
 80005e8:	6819      	ldr	r1, [r3, #0]
 80005ea:	f421 6070 	bic.w	r0, r1, #3840	; 0xf00
 80005ee:	6018      	str	r0, [r3, #0]
 80005f0:	681a      	ldr	r2, [r3, #0]
 80005f2:	f442 7140 	orr.w	r1, r2, #768	; 0x300
 80005f6:	6019      	str	r1, [r3, #0]
 80005f8:	68d8      	ldr	r0, [r3, #12]
 80005fa:	f040 0204 	orr.w	r2, r0, #4
 80005fe:	60da      	str	r2, [r3, #12]
 8000600:	4770      	bx	lr
 8000602:	bf00      	nop
 8000604:	40021000 	andmi	r1, r2, r0
 8000608:	40011400 	andmi	r1, r1, r0, lsl #8

0800060c <oct_transfer>:
 800060c:	b4f0      	push	{r4, r5, r6, r7}
 800060e:	4b39      	ldr	r3, [pc, #228]	; (80006f4 <oct_transfer+0xe8>)
 8000610:	4616      	mov	r6, r2
 8000612:	b08c      	sub	sp, #48	; 0x30
 8000614:	ad08      	add	r5, sp, #32
 8000616:	2e62      	cmp	r6, #98	; 0x62
 8000618:	4604      	mov	r4, r0
 800061a:	460f      	mov	r7, r1
 800061c:	cb0f      	ldmia	r3, {r0, r1, r2, r3}
 800061e:	e885 000f 	stmia.w	r5, {r0, r1, r2, r3}
 8000622:	d005      	beq.n	8000630 <oct_transfer+0x24>
 8000624:	2e68      	cmp	r6, #104	; 0x68
 8000626:	d003      	beq.n	8000630 <oct_transfer+0x24>
 8000628:	2001      	movs	r0, #1
 800062a:	b00c      	add	sp, #48	; 0x30
 800062c:	bcf0      	pop	{r4, r5, r6, r7}
 800062e:	4770      	bx	lr
 8000630:	2c00      	cmp	r4, #0
 8000632:	d036      	beq.n	80006a2 <oct_transfer+0x96>
 8000634:	2e62      	cmp	r6, #98	; 0x62
 8000636:	d039      	beq.n	80006ac <oct_transfer+0xa0>
 8000638:	2e68      	cmp	r6, #104	; 0x68
 800063a:	d047      	beq.n	80006cc <oct_transfer+0xc0>
 800063c:	466d      	mov	r5, sp
 800063e:	f10d 3cff 	add.w	ip, sp, #4294967295
 8000642:	45ac      	cmp	ip, r5
 8000644:	d023      	beq.n	800068e <oct_transfer+0x82>
 8000646:	4663      	mov	r3, ip
 8000648:	f813 0901 	ldrb.w	r0, [r3], #-1
 800064c:	ebcc 0205 	rsb	r2, ip, r5
 8000650:	43d1      	mvns	r1, r2
 8000652:	463a      	mov	r2, r7
 8000654:	42ab      	cmp	r3, r5
 8000656:	f802 0b01 	strb.w	r0, [r2], #1
 800065a:	f001 0101 	and.w	r1, r1, #1
 800065e:	d013      	beq.n	8000688 <oct_transfer+0x7c>
 8000660:	b129      	cbz	r1, 800066e <oct_transfer+0x62>
 8000662:	f813 1901 	ldrb.w	r1, [r3], #-1
 8000666:	42ab      	cmp	r3, r5
 8000668:	f802 1b01 	strb.w	r1, [r2], #1
 800066c:	d00c      	beq.n	8000688 <oct_transfer+0x7c>
 800066e:	4618      	mov	r0, r3
 8000670:	f810 4901 	ldrb.w	r4, [r0], #-1
 8000674:	4611      	mov	r1, r2
 8000676:	f801 4b01 	strb.w	r4, [r1], #1
 800067a:	f813 4c01 	ldrb.w	r4, [r3, #-1]
 800067e:	1e43      	subs	r3, r0, #1
 8000680:	7054      	strb	r4, [r2, #1]
 8000682:	1c4a      	adds	r2, r1, #1
 8000684:	42ab      	cmp	r3, r5
 8000686:	d1f2      	bne.n	800066e <oct_transfer+0x62>
 8000688:	ebc5 050c 	rsb	r5, r5, ip
 800068c:	197f      	adds	r7, r7, r5
 800068e:	f89d 3000 	ldrb.w	r3, [sp]
 8000692:	2e62      	cmp	r6, #98	; 0x62
 8000694:	703b      	strb	r3, [r7, #0]
 8000696:	d029      	beq.n	80006ec <oct_transfer+0xe0>
 8000698:	2148      	movs	r1, #72	; 0x48
 800069a:	7079      	strb	r1, [r7, #1]
 800069c:	2000      	movs	r0, #0
 800069e:	70b8      	strb	r0, [r7, #2]
 80006a0:	e7c3      	b.n	800062a <oct_transfer+0x1e>
 80006a2:	2030      	movs	r0, #48	; 0x30
 80006a4:	7038      	strb	r0, [r7, #0]
 80006a6:	707c      	strb	r4, [r7, #1]
 80006a8:	4620      	mov	r0, r4
 80006aa:	e7be      	b.n	800062a <oct_transfer+0x1e>
 80006ac:	466d      	mov	r5, sp
 80006ae:	466b      	mov	r3, sp
 80006b0:	f004 0c01 	and.w	ip, r4, #1
 80006b4:	a90c      	add	r1, sp, #48	; 0x30
 80006b6:	eb01 000c 	add.w	r0, r1, ip
 80006ba:	f810 2c10 	ldrb.w	r2, [r0, #-16]
 80006be:	0864      	lsrs	r4, r4, #1
 80006c0:	f803 2b01 	strb.w	r2, [r3], #1
 80006c4:	d1f4      	bne.n	80006b0 <oct_transfer+0xa4>
 80006c6:	f103 3cff 	add.w	ip, r3, #4294967295
 80006ca:	e7ba      	b.n	8000642 <oct_transfer+0x36>
 80006cc:	466d      	mov	r5, sp
 80006ce:	466b      	mov	r3, sp
 80006d0:	f004 0c0f 	and.w	ip, r4, #15
 80006d4:	a90c      	add	r1, sp, #48	; 0x30
 80006d6:	eb01 000c 	add.w	r0, r1, ip
 80006da:	f810 2c10 	ldrb.w	r2, [r0, #-16]
 80006de:	0924      	lsrs	r4, r4, #4
 80006e0:	f803 2b01 	strb.w	r2, [r3], #1
 80006e4:	d1f4      	bne.n	80006d0 <oct_transfer+0xc4>
 80006e6:	f103 3cff 	add.w	ip, r3, #4294967295
 80006ea:	e7aa      	b.n	8000642 <oct_transfer+0x36>
 80006ec:	2242      	movs	r2, #66	; 0x42
 80006ee:	707a      	strb	r2, [r7, #1]
 80006f0:	e7d4      	b.n	800069c <oct_transfer+0x90>
 80006f2:	bf00      	nop
 80006f4:	08000c6c 	stmdaeq	r0, {r2, r3, r5, r6, sl, fp}

080006f8 <main>:
 80006f8:	b500      	push	{lr}
 80006fa:	4b1c      	ldr	r3, [pc, #112]	; (800076c <main+0x74>)
 80006fc:	b08b      	sub	sp, #44	; 0x2c
 80006fe:	9309      	str	r3, [sp, #36]	; 0x24
 8000700:	f000 faa8 	bl	8000c54 <communication_agreement_start>
 8000704:	481a      	ldr	r0, [pc, #104]	; (8000770 <main+0x78>)
 8000706:	f000 fa8f 	bl	8000c28 <printfs>
 800070a:	481a      	ldr	r0, [pc, #104]	; (8000774 <main+0x7c>)
 800070c:	f000 fa8c 	bl	8000c28 <printfs>
 8000710:	4819      	ldr	r0, [pc, #100]	; (8000778 <main+0x80>)
 8000712:	f000 fa89 	bl	8000c28 <printfs>
 8000716:	4669      	mov	r1, sp
 8000718:	2262      	movs	r2, #98	; 0x62
 800071a:	9809      	ldr	r0, [sp, #36]	; 0x24
 800071c:	f7ff ff76 	bl	800060c <oct_transfer>
 8000720:	4668      	mov	r0, sp
 8000722:	f000 fa81 	bl	8000c28 <printfs>
 8000726:	4813      	ldr	r0, [pc, #76]	; (8000774 <main+0x7c>)
 8000728:	f000 fa7e 	bl	8000c28 <printfs>
 800072c:	4669      	mov	r1, sp
 800072e:	2268      	movs	r2, #104	; 0x68
 8000730:	9809      	ldr	r0, [sp, #36]	; 0x24
 8000732:	f7ff ff6b 	bl	800060c <oct_transfer>
 8000736:	4668      	mov	r0, sp
 8000738:	f000 fa76 	bl	8000c28 <printfs>
 800073c:	480d      	ldr	r0, [pc, #52]	; (8000774 <main+0x7c>)
 800073e:	f000 fa73 	bl	8000c28 <printfs>
 8000742:	f000 f979 	bl	8000a38 <get_sec>
 8000746:	9008      	str	r0, [sp, #32]
 8000748:	9a09      	ldr	r2, [sp, #36]	; 0x24
 800074a:	9808      	ldr	r0, [sp, #32]
 800074c:	4282      	cmp	r2, r0
 800074e:	d0f8      	beq.n	8000742 <main+0x4a>
 8000750:	4669      	mov	r1, sp
 8000752:	2268      	movs	r2, #104	; 0x68
 8000754:	9808      	ldr	r0, [sp, #32]
 8000756:	f7ff ff59 	bl	800060c <oct_transfer>
 800075a:	4668      	mov	r0, sp
 800075c:	f000 fa64 	bl	8000c28 <printfs>
 8000760:	4806      	ldr	r0, [pc, #24]	; (800077c <main+0x84>)
 8000762:	f000 fa61 	bl	8000c28 <printfs>
 8000766:	9908      	ldr	r1, [sp, #32]
 8000768:	9109      	str	r1, [sp, #36]	; 0x24
 800076a:	e7ea      	b.n	8000742 <main+0x4a>
 800076c:	000186a0 	andeq	r8, r1, r0, lsr #13
 8000770:	08000dd4 	stmdaeq	r0, {r2, r4, r6, r7, r8, sl, fp}
 8000774:	08000cd4 	stmdaeq	r0, {r2, r4, r6, r7, sl, fp}
 8000778:	08000dec 	stmdaeq	r0, {r2, r3, r5, r6, r7, r8, sl, fp}
 800077c:	08000ca4 	stmdaeq	r0, {r2, r5, r7, sl, fp}

08000780 <RCC_APB2PeriphResetCmd>:
 8000780:	b929      	cbnz	r1, 800078e <RCC_APB2PeriphResetCmd+0xe>
 8000782:	4b05      	ldr	r3, [pc, #20]	; (8000798 <RCC_APB2PeriphResetCmd+0x18>)
 8000784:	68da      	ldr	r2, [r3, #12]
 8000786:	ea22 0100 	bic.w	r1, r2, r0
 800078a:	60d9      	str	r1, [r3, #12]
 800078c:	4770      	bx	lr
 800078e:	4b02      	ldr	r3, [pc, #8]	; (8000798 <RCC_APB2PeriphResetCmd+0x18>)
 8000790:	68da      	ldr	r2, [r3, #12]
 8000792:	4310      	orrs	r0, r2
 8000794:	60d8      	str	r0, [r3, #12]
 8000796:	4770      	bx	lr
 8000798:	40021000 	andmi	r1, r2, r0

0800079c <RCC_APB1PeriphResetCmd>:
 800079c:	b929      	cbnz	r1, 80007aa <RCC_APB1PeriphResetCmd+0xe>
 800079e:	4b05      	ldr	r3, [pc, #20]	; (80007b4 <RCC_APB1PeriphResetCmd+0x18>)
 80007a0:	691a      	ldr	r2, [r3, #16]
 80007a2:	ea22 0100 	bic.w	r1, r2, r0
 80007a6:	6119      	str	r1, [r3, #16]
 80007a8:	4770      	bx	lr
 80007aa:	4b02      	ldr	r3, [pc, #8]	; (80007b4 <RCC_APB1PeriphResetCmd+0x18>)
 80007ac:	691a      	ldr	r2, [r3, #16]
 80007ae:	4310      	orrs	r0, r2
 80007b0:	6118      	str	r0, [r3, #16]
 80007b2:	4770      	bx	lr
 80007b4:	40021000 	andmi	r1, r2, r0

080007b8 <RCC_GetClocksFreq>:
 80007b8:	4b21      	ldr	r3, [pc, #132]	; (8000840 <RCC_GetClocksFreq+0x88>)
 80007ba:	b410      	push	{r4}
 80007bc:	685a      	ldr	r2, [r3, #4]
 80007be:	f002 020c 	and.w	r2, r2, #12
 80007c2:	2a04      	cmp	r2, #4
 80007c4:	d001      	beq.n	80007ca <RCC_GetClocksFreq+0x12>
 80007c6:	2a08      	cmp	r2, #8
 80007c8:	d023      	beq.n	8000812 <RCC_GetClocksFreq+0x5a>
 80007ca:	491e      	ldr	r1, [pc, #120]	; (8000844 <RCC_GetClocksFreq+0x8c>)
 80007cc:	6001      	str	r1, [r0, #0]
 80007ce:	4a1c      	ldr	r2, [pc, #112]	; (8000840 <RCC_GetClocksFreq+0x88>)
 80007d0:	4b1d      	ldr	r3, [pc, #116]	; (8000848 <RCC_GetClocksFreq+0x90>)
 80007d2:	6854      	ldr	r4, [r2, #4]
 80007d4:	f3c4 1c03 	ubfx	ip, r4, #4, #4
 80007d8:	f813 400c 	ldrb.w	r4, [r3, ip]
 80007dc:	40e1      	lsrs	r1, r4
 80007de:	6041      	str	r1, [r0, #4]
 80007e0:	6854      	ldr	r4, [r2, #4]
 80007e2:	f3c4 2c02 	ubfx	ip, r4, #8, #3
 80007e6:	f813 400c 	ldrb.w	r4, [r3, ip]
 80007ea:	fa31 f404 	lsrs.w	r4, r1, r4
 80007ee:	6084      	str	r4, [r0, #8]
 80007f0:	6854      	ldr	r4, [r2, #4]
 80007f2:	f3c4 24c2 	ubfx	r4, r4, #11, #3
 80007f6:	5d1c      	ldrb	r4, [r3, r4]
 80007f8:	40e1      	lsrs	r1, r4
 80007fa:	60c1      	str	r1, [r0, #12]
 80007fc:	6852      	ldr	r2, [r2, #4]
 80007fe:	f3c2 3281 	ubfx	r2, r2, #14, #2
 8000802:	189b      	adds	r3, r3, r2
 8000804:	f893 c010 	ldrb.w	ip, [r3, #16]
 8000808:	fbb1 f1fc 	udiv	r1, r1, ip
 800080c:	6101      	str	r1, [r0, #16]
 800080e:	bc10      	pop	{r4}
 8000810:	4770      	bx	lr
 8000812:	685a      	ldr	r2, [r3, #4]
 8000814:	685c      	ldr	r4, [r3, #4]
 8000816:	f3c2 4183 	ubfx	r1, r2, #18, #4
 800081a:	3102      	adds	r1, #2
 800081c:	f414 3f80 	tst.w	r4, #65536	; 0x10000
 8000820:	d008      	beq.n	8000834 <RCC_GetClocksFreq+0x7c>
 8000822:	685b      	ldr	r3, [r3, #4]
 8000824:	f413 3f00 	tst.w	r3, #131072	; 0x20000
 8000828:	d104      	bne.n	8000834 <RCC_GetClocksFreq+0x7c>
 800082a:	4a06      	ldr	r2, [pc, #24]	; (8000844 <RCC_GetClocksFreq+0x8c>)
 800082c:	fb02 f101 	mul.w	r1, r2, r1
 8000830:	6001      	str	r1, [r0, #0]
 8000832:	e7cc      	b.n	80007ce <RCC_GetClocksFreq+0x16>
 8000834:	4c05      	ldr	r4, [pc, #20]	; (800084c <RCC_GetClocksFreq+0x94>)
 8000836:	fb04 f101 	mul.w	r1, r4, r1
 800083a:	6001      	str	r1, [r0, #0]
 800083c:	e7c7      	b.n	80007ce <RCC_GetClocksFreq+0x16>
 800083e:	bf00      	nop
 8000840:	40021000 	andmi	r1, r2, r0
 8000844:	007a1200 	rsbseq	r1, sl, r0, lsl #4
 8000848:	20000000 	andcs	r0, r0, r0
 800084c:	003d0900 	eorseq	r0, sp, r0, lsl #18

08000850 <RCC_APB2PeriphClockCmd>:
 8000850:	b929      	cbnz	r1, 800085e <RCC_APB2PeriphClockCmd+0xe>
 8000852:	4b05      	ldr	r3, [pc, #20]	; (8000868 <RCC_APB2PeriphClockCmd+0x18>)
 8000854:	699a      	ldr	r2, [r3, #24]
 8000856:	ea22 0100 	bic.w	r1, r2, r0
 800085a:	6199      	str	r1, [r3, #24]
 800085c:	4770      	bx	lr
 800085e:	4b02      	ldr	r3, [pc, #8]	; (8000868 <RCC_APB2PeriphClockCmd+0x18>)
 8000860:	699a      	ldr	r2, [r3, #24]
 8000862:	4310      	orrs	r0, r2
 8000864:	6198      	str	r0, [r3, #24]
 8000866:	4770      	bx	lr
 8000868:	40021000 	andmi	r1, r2, r0

0800086c <Reset_Handler>:
 800086c:	2100      	movs	r1, #0
 800086e:	e003      	b.n	8000878 <LoopCopyDataInit>

08000870 <CopyDataInit>:
 8000870:	f04f 0300 	mov.w	r3, #0
 8000874:	5043      	str	r3, [r0, r1]
 8000876:	3104      	adds	r1, #4

08000878 <LoopCopyDataInit>:
 8000878:	4809      	ldr	r0, [pc, #36]	; (80008a0 <halt+0x2>)
 800087a:	4b0a      	ldr	r3, [pc, #40]	; (80008a4 <halt+0x6>)
 800087c:	1842      	adds	r2, r0, r1
 800087e:	429a      	cmp	r2, r3
 8000880:	d3f6      	bcc.n	8000870 <CopyDataInit>
 8000882:	4a09      	ldr	r2, [pc, #36]	; (80008a8 <halt+0xa>)
 8000884:	e002      	b.n	800088c <LoopFillZerobss>

08000886 <FillZerobss>:
 8000886:	2300      	movs	r3, #0
 8000888:	f842 3b04 	str.w	r3, [r2], #4

0800088c <LoopFillZerobss>:
 800088c:	4b07      	ldr	r3, [pc, #28]	; (80008ac <halt+0xe>)
 800088e:	429a      	cmp	r2, r3
 8000890:	d3f9      	bcc.n	8000886 <FillZerobss>
 8000892:	f000 f813 	bl	80008bc <SystemInit>
 8000896:	f7ff fca5 	bl	80001e4 <_main>
 800089a:	f7ff ff2d 	bl	80006f8 <main>

0800089e <halt>:
 800089e:	e7fe      	b.n	800089e <halt>
 80008a0:	20000000 	andcs	r0, r0, r0
 80008a4:	20000800 	andcs	r0, r0, r0, lsl #16
 80008a8:	20001000 	andcs	r1, r0, r0
 80008ac:	20001800 	andcs	r1, r0, r0, lsl #16

080008b0 <ADC1_2_IRQHandler>:
 80008b0:	e7fe      	b.n	80008b0 <ADC1_2_IRQHandler>

080008b2 <SysTick_Handler>:
 80008b2:	f7ff be65 	b.w	8000580 <systick_Handle>

080008b6 <USART1_IRQHandler>:
 80008b6:	f7ff be85 	b.w	80005c4 <USART1_Handler>
	...

080008bc <SystemInit>:
 80008bc:	4b3f      	ldr	r3, [pc, #252]	; (80009bc <SystemInit+0x100>)
 80008be:	4a40      	ldr	r2, [pc, #256]	; (80009c0 <SystemInit+0x104>)
 80008c0:	6818      	ldr	r0, [r3, #0]
 80008c2:	2100      	movs	r1, #0
 80008c4:	f040 0001 	orr.w	r0, r0, #1
 80008c8:	6018      	str	r0, [r3, #0]
 80008ca:	6858      	ldr	r0, [r3, #4]
 80008cc:	b082      	sub	sp, #8
 80008ce:	ea00 0202 	and.w	r2, r0, r2
 80008d2:	605a      	str	r2, [r3, #4]
 80008d4:	6818      	ldr	r0, [r3, #0]
 80008d6:	461a      	mov	r2, r3
 80008d8:	f020 7c84 	bic.w	ip, r0, #17301504	; 0x1080000
 80008dc:	f42c 3080 	bic.w	r0, ip, #65536	; 0x10000
 80008e0:	6018      	str	r0, [r3, #0]
 80008e2:	6818      	ldr	r0, [r3, #0]
 80008e4:	f420 2080 	bic.w	r0, r0, #262144	; 0x40000
 80008e8:	6018      	str	r0, [r3, #0]
 80008ea:	6858      	ldr	r0, [r3, #4]
 80008ec:	f420 00fe 	bic.w	r0, r0, #8323072	; 0x7f0000
 80008f0:	6058      	str	r0, [r3, #4]
 80008f2:	f44f 001f 	mov.w	r0, #10420224	; 0x9f0000
 80008f6:	6098      	str	r0, [r3, #8]
 80008f8:	9101      	str	r1, [sp, #4]
 80008fa:	9100      	str	r1, [sp, #0]
 80008fc:	6818      	ldr	r0, [r3, #0]
 80008fe:	f440 3180 	orr.w	r1, r0, #65536	; 0x10000
 8000902:	6019      	str	r1, [r3, #0]
 8000904:	e003      	b.n	800090e <SystemInit+0x52>
 8000906:	9801      	ldr	r0, [sp, #4]
 8000908:	f5b0 6fa0 	cmp.w	r0, #1280	; 0x500
 800090c:	d009      	beq.n	8000922 <SystemInit+0x66>
 800090e:	6811      	ldr	r1, [r2, #0]
 8000910:	f401 3300 	and.w	r3, r1, #131072	; 0x20000
 8000914:	9300      	str	r3, [sp, #0]
 8000916:	9801      	ldr	r0, [sp, #4]
 8000918:	1c41      	adds	r1, r0, #1
 800091a:	9101      	str	r1, [sp, #4]
 800091c:	9b00      	ldr	r3, [sp, #0]
 800091e:	2b00      	cmp	r3, #0
 8000920:	d0f1      	beq.n	8000906 <SystemInit+0x4a>
 8000922:	4b26      	ldr	r3, [pc, #152]	; (80009bc <SystemInit+0x100>)
 8000924:	681a      	ldr	r2, [r3, #0]
 8000926:	f412 3300 	ands.w	r3, r2, #131072	; 0x20000
 800092a:	d00a      	beq.n	8000942 <SystemInit+0x86>
 800092c:	2101      	movs	r1, #1
 800092e:	9100      	str	r1, [sp, #0]
 8000930:	9800      	ldr	r0, [sp, #0]
 8000932:	2801      	cmp	r0, #1
 8000934:	d009      	beq.n	800094a <SystemInit+0x8e>
 8000936:	4823      	ldr	r0, [pc, #140]	; (80009c4 <SystemInit+0x108>)
 8000938:	f04f 6100 	mov.w	r1, #134217728	; 0x8000000
 800093c:	6081      	str	r1, [r0, #8]
 800093e:	b002      	add	sp, #8
 8000940:	4770      	bx	lr
 8000942:	9300      	str	r3, [sp, #0]
 8000944:	9800      	ldr	r0, [sp, #0]
 8000946:	2801      	cmp	r0, #1
 8000948:	d1f5      	bne.n	8000936 <SystemInit+0x7a>
 800094a:	4a1f      	ldr	r2, [pc, #124]	; (80009c8 <SystemInit+0x10c>)
 800094c:	4b1b      	ldr	r3, [pc, #108]	; (80009bc <SystemInit+0x100>)
 800094e:	6810      	ldr	r0, [r2, #0]
 8000950:	4619      	mov	r1, r3
 8000952:	f040 0010 	orr.w	r0, r0, #16
 8000956:	6010      	str	r0, [r2, #0]
 8000958:	6810      	ldr	r0, [r2, #0]
 800095a:	f020 0003 	bic.w	r0, r0, #3
 800095e:	6010      	str	r0, [r2, #0]
 8000960:	6810      	ldr	r0, [r2, #0]
 8000962:	f040 0002 	orr.w	r0, r0, #2
 8000966:	6010      	str	r0, [r2, #0]
 8000968:	6858      	ldr	r0, [r3, #4]
 800096a:	6058      	str	r0, [r3, #4]
 800096c:	685a      	ldr	r2, [r3, #4]
 800096e:	605a      	str	r2, [r3, #4]
 8000970:	6858      	ldr	r0, [r3, #4]
 8000972:	f440 6280 	orr.w	r2, r0, #1024	; 0x400
 8000976:	605a      	str	r2, [r3, #4]
 8000978:	6858      	ldr	r0, [r3, #4]
 800097a:	f420 127c 	bic.w	r2, r0, #4128768	; 0x3f0000
 800097e:	605a      	str	r2, [r3, #4]
 8000980:	6858      	ldr	r0, [r3, #4]
 8000982:	f440 12e8 	orr.w	r2, r0, #1900544	; 0x1d0000
 8000986:	605a      	str	r2, [r3, #4]
 8000988:	6818      	ldr	r0, [r3, #0]
 800098a:	f040 7280 	orr.w	r2, r0, #16777216	; 0x1000000
 800098e:	601a      	str	r2, [r3, #0]
 8000990:	680b      	ldr	r3, [r1, #0]
 8000992:	4a0a      	ldr	r2, [pc, #40]	; (80009bc <SystemInit+0x100>)
 8000994:	f013 7f00 	tst.w	r3, #33554432	; 0x2000000
 8000998:	d0fa      	beq.n	8000990 <SystemInit+0xd4>
 800099a:	6853      	ldr	r3, [r2, #4]
 800099c:	4611      	mov	r1, r2
 800099e:	f023 0003 	bic.w	r0, r3, #3
 80009a2:	6050      	str	r0, [r2, #4]
 80009a4:	6853      	ldr	r3, [r2, #4]
 80009a6:	f043 0002 	orr.w	r0, r3, #2
 80009aa:	6050      	str	r0, [r2, #4]
 80009ac:	684a      	ldr	r2, [r1, #4]
 80009ae:	f002 0c0c 	and.w	ip, r2, #12
 80009b2:	f1bc 0f08 	cmp.w	ip, #8
 80009b6:	d1f9      	bne.n	80009ac <SystemInit+0xf0>
 80009b8:	e7bd      	b.n	8000936 <SystemInit+0x7a>
 80009ba:	bf00      	nop
 80009bc:	40021000 	andmi	r1, r2, r0
 80009c0:	f8ff0000 			; <UNDEFINED> instruction: 0xf8ff0000
 80009c4:	e000ed00 	and	lr, r0, r0, lsl #26
 80009c8:	40022000 	andmi	r2, r2, r0

080009cc <systick_init>:
 80009cc:	4b04      	ldr	r3, [pc, #16]	; (80009e0 <systick_init+0x14>)
 80009ce:	4805      	ldr	r0, [pc, #20]	; (80009e4 <systick_init+0x18>)
 80009d0:	681a      	ldr	r2, [r3, #0]
 80009d2:	f022 0107 	bic.w	r1, r2, #7
 80009d6:	2200      	movs	r2, #0
 80009d8:	6019      	str	r1, [r3, #0]
 80009da:	6058      	str	r0, [r3, #4]
 80009dc:	609a      	str	r2, [r3, #8]
 80009de:	4770      	bx	lr
 80009e0:	e000e010 	and	lr, r0, r0, lsl r0
 80009e4:	00015f90 	muleq	r1, r0, pc	; <UNPREDICTABLE>

080009e8 <tft_init>:
 80009e8:	b570      	push	{r4, r5, r6, lr}
 80009ea:	2101      	movs	r1, #1
 80009ec:	4d10      	ldr	r5, [pc, #64]	; (8000a30 <tft_init+0x48>)
 80009ee:	2019      	movs	r0, #25
 80009f0:	f7ff ff2e 	bl	8000850 <RCC_APB2PeriphClockCmd>
 80009f4:	2001      	movs	r0, #1
 80009f6:	f7ff fd55 	bl	80004a4 <JTAG_Set>
 80009fa:	4628      	mov	r0, r5
 80009fc:	2118      	movs	r1, #24
 80009fe:	f44f 62f8 	mov.w	r2, #1984	; 0x7c0
 8000a02:	2303      	movs	r3, #3
 8000a04:	f7ff fd62 	bl	80004cc <set_io>
 8000a08:	68ee      	ldr	r6, [r5, #12]
 8000a0a:	4c0a      	ldr	r4, [pc, #40]	; (8000a34 <tft_init+0x4c>)
 8000a0c:	f446 66f8 	orr.w	r6, r6, #1984	; 0x7c0
 8000a10:	4620      	mov	r0, r4
 8000a12:	2118      	movs	r1, #24
 8000a14:	2303      	movs	r3, #3
 8000a16:	f64f 72ff 	movw	r2, #65535	; 0xffff
 8000a1a:	60ee      	str	r6, [r5, #12]
 8000a1c:	f7ff fd56 	bl	80004cc <set_io>
 8000a20:	68e1      	ldr	r1, [r4, #12]
 8000a22:	ea6f 4011 	mvn.w	r0, r1, lsr #16
 8000a26:	ea6f 4300 	mvn.w	r3, r0, lsl #16
 8000a2a:	60e3      	str	r3, [r4, #12]
 8000a2c:	bd70      	pop	{r4, r5, r6, pc}
 8000a2e:	bf00      	nop
 8000a30:	40011000 	andmi	r1, r1, r0
 8000a34:	40010c00 	andmi	r0, r1, r0, lsl #24

08000a38 <get_sec>:
 8000a38:	4b01      	ldr	r3, [pc, #4]	; (8000a40 <get_sec+0x8>)
 8000a3a:	6818      	ldr	r0, [r3, #0]
 8000a3c:	4770      	bx	lr
 8000a3e:	bf00      	nop
 8000a40:	2000001c 	andcs	r0, r0, ip, lsl r0

08000a44 <touch_init>:
 8000a44:	4770      	bx	lr
 8000a46:	bf00      	nop

08000a48 <USART_DeInit>:
 8000a48:	4b26      	ldr	r3, [pc, #152]	; (8000ae4 <USART_DeInit+0x9c>)
 8000a4a:	b510      	push	{r4, lr}
 8000a4c:	4298      	cmp	r0, r3
 8000a4e:	d018      	beq.n	8000a82 <USART_DeInit+0x3a>
 8000a50:	4925      	ldr	r1, [pc, #148]	; (8000ae8 <USART_DeInit+0xa0>)
 8000a52:	4288      	cmp	r0, r1
 8000a54:	d021      	beq.n	8000a9a <USART_DeInit+0x52>
 8000a56:	4a25      	ldr	r2, [pc, #148]	; (8000aec <USART_DeInit+0xa4>)
 8000a58:	4290      	cmp	r0, r2
 8000a5a:	d02a      	beq.n	8000ab2 <USART_DeInit+0x6a>
 8000a5c:	4b24      	ldr	r3, [pc, #144]	; (8000af0 <USART_DeInit+0xa8>)
 8000a5e:	4298      	cmp	r0, r3
 8000a60:	d033      	beq.n	8000aca <USART_DeInit+0x82>
 8000a62:	4924      	ldr	r1, [pc, #144]	; (8000af4 <USART_DeInit+0xac>)
 8000a64:	4288      	cmp	r0, r1
 8000a66:	d000      	beq.n	8000a6a <USART_DeInit+0x22>
 8000a68:	bd10      	pop	{r4, pc}
 8000a6a:	2101      	movs	r1, #1
 8000a6c:	f44f 1080 	mov.w	r0, #1048576	; 0x100000
 8000a70:	f7ff fe94 	bl	800079c <RCC_APB1PeriphResetCmd>
 8000a74:	f44f 1080 	mov.w	r0, #1048576	; 0x100000
 8000a78:	2100      	movs	r1, #0
 8000a7a:	e8bd 4010 	ldmia.w	sp!, {r4, lr}
 8000a7e:	f7ff be8d 	b.w	800079c <RCC_APB1PeriphResetCmd>
 8000a82:	2101      	movs	r1, #1
 8000a84:	f44f 4080 	mov.w	r0, #16384	; 0x4000
 8000a88:	f7ff fe7a 	bl	8000780 <RCC_APB2PeriphResetCmd>
 8000a8c:	f44f 4080 	mov.w	r0, #16384	; 0x4000
 8000a90:	2100      	movs	r1, #0
 8000a92:	e8bd 4010 	ldmia.w	sp!, {r4, lr}
 8000a96:	f7ff be73 	b.w	8000780 <RCC_APB2PeriphResetCmd>
 8000a9a:	2101      	movs	r1, #1
 8000a9c:	f44f 3000 	mov.w	r0, #131072	; 0x20000
 8000aa0:	f7ff fe7c 	bl	800079c <RCC_APB1PeriphResetCmd>
 8000aa4:	f44f 3000 	mov.w	r0, #131072	; 0x20000
 8000aa8:	2100      	movs	r1, #0
 8000aaa:	e8bd 4010 	ldmia.w	sp!, {r4, lr}
 8000aae:	f7ff be75 	b.w	800079c <RCC_APB1PeriphResetCmd>
 8000ab2:	2101      	movs	r1, #1
 8000ab4:	f44f 2080 	mov.w	r0, #262144	; 0x40000
 8000ab8:	f7ff fe70 	bl	800079c <RCC_APB1PeriphResetCmd>
 8000abc:	f44f 2080 	mov.w	r0, #262144	; 0x40000
 8000ac0:	2100      	movs	r1, #0
 8000ac2:	e8bd 4010 	ldmia.w	sp!, {r4, lr}
 8000ac6:	f7ff be69 	b.w	800079c <RCC_APB1PeriphResetCmd>
 8000aca:	2101      	movs	r1, #1
 8000acc:	f44f 2000 	mov.w	r0, #524288	; 0x80000
 8000ad0:	f7ff fe64 	bl	800079c <RCC_APB1PeriphResetCmd>
 8000ad4:	f44f 2000 	mov.w	r0, #524288	; 0x80000
 8000ad8:	2100      	movs	r1, #0
 8000ada:	e8bd 4010 	ldmia.w	sp!, {r4, lr}
 8000ade:	f7ff be5d 	b.w	800079c <RCC_APB1PeriphResetCmd>
 8000ae2:	bf00      	nop
 8000ae4:	40013800 	andmi	r3, r1, r0, lsl #16
 8000ae8:	40004400 	andmi	r4, r0, r0, lsl #8
 8000aec:	40004800 	andmi	r4, r0, r0, lsl #16
 8000af0:	40004c00 	andmi	r4, r0, r0, lsl #24
 8000af4:	40005000 	andmi	r5, r0, r0

08000af8 <USART_Init>:
 8000af8:	b530      	push	{r4, r5, lr}
 8000afa:	f8b0 e010 	ldrh.w	lr, [r0, #16]
 8000afe:	f8b1 c006 	ldrh.w	ip, [r1, #6]
 8000b02:	f42e 5340 	bic.w	r3, lr, #12288	; 0x3000
 8000b06:	041a      	lsls	r2, r3, #16
 8000b08:	0c13      	lsrs	r3, r2, #16
 8000b0a:	ea43 030c 	orr.w	r3, r3, ip
 8000b0e:	8203      	strh	r3, [r0, #16]
 8000b10:	f8b0 e00c 	ldrh.w	lr, [r0, #12]
 8000b14:	4604      	mov	r4, r0
 8000b16:	f8b1 c004 	ldrh.w	ip, [r1, #4]
 8000b1a:	8908      	ldrh	r0, [r1, #8]
 8000b1c:	460d      	mov	r5, r1
 8000b1e:	f42e 52b0 	bic.w	r2, lr, #5632	; 0x1600
 8000b22:	8949      	ldrh	r1, [r1, #10]
 8000b24:	ea40 0e0c 	orr.w	lr, r0, ip
 8000b28:	f022 030c 	bic.w	r3, r2, #12
 8000b2c:	041b      	lsls	r3, r3, #16
 8000b2e:	ea4e 0201 	orr.w	r2, lr, r1
 8000b32:	0c18      	lsrs	r0, r3, #16
 8000b34:	fa1f fc82 	uxth.w	ip, r2
 8000b38:	ea4c 0e00 	orr.w	lr, ip, r0
 8000b3c:	f8a4 e00c 	strh.w	lr, [r4, #12]
 8000b40:	8aa1      	ldrh	r1, [r4, #20]
 8000b42:	f8b5 c00c 	ldrh.w	ip, [r5, #12]
 8000b46:	f421 7240 	bic.w	r2, r1, #768	; 0x300
 8000b4a:	0413      	lsls	r3, r2, #16
 8000b4c:	0c18      	lsrs	r0, r3, #16
 8000b4e:	b087      	sub	sp, #28
 8000b50:	ea40 0e0c 	orr.w	lr, r0, ip
 8000b54:	f8a4 e014 	strh.w	lr, [r4, #20]
 8000b58:	a801      	add	r0, sp, #4
 8000b5a:	f7ff fe2d 	bl	80007b8 <RCC_GetClocksFreq>
 8000b5e:	490f      	ldr	r1, [pc, #60]	; (8000b9c <USART_Init+0xa4>)
 8000b60:	682b      	ldr	r3, [r5, #0]
 8000b62:	428c      	cmp	r4, r1
 8000b64:	bf0c      	ite	eq
 8000b66:	9a04      	ldreq	r2, [sp, #16]
 8000b68:	9a03      	ldrne	r2, [sp, #12]
 8000b6a:	0098      	lsls	r0, r3, #2
 8000b6c:	eb02 0c82 	add.w	ip, r2, r2, lsl #2
 8000b70:	eb0c 018c 	add.w	r1, ip, ip, lsl #2
 8000b74:	4a0a      	ldr	r2, [pc, #40]	; (8000ba0 <USART_Init+0xa8>)
 8000b76:	fbb1 fcf0 	udiv	ip, r1, r0
 8000b7a:	fba2 030c 	umull	r0, r3, r2, ip
 8000b7e:	2064      	movs	r0, #100	; 0x64
 8000b80:	095b      	lsrs	r3, r3, #5
 8000b82:	fb03 c110 	mls	r1, r3, r0, ip
 8000b86:	0108      	lsls	r0, r1, #4
 8000b88:	3032      	adds	r0, #50	; 0x32
 8000b8a:	fba2 0100 	umull	r0, r1, r2, r0
 8000b8e:	f3c1 1243 	ubfx	r2, r1, #5, #4
 8000b92:	ea42 1303 	orr.w	r3, r2, r3, lsl #4
 8000b96:	8123      	strh	r3, [r4, #8]
 8000b98:	b007      	add	sp, #28
 8000b9a:	bd30      	pop	{r4, r5, pc}
 8000b9c:	40013800 	andmi	r3, r1, r0, lsl #16
 8000ba0:	51eb851f 	mvnpl	r8, pc, lsl r5

08000ba4 <USART_Configuration>:
 8000ba4:	b530      	push	{r4, r5, lr}
 8000ba6:	4d19      	ldr	r5, [pc, #100]	; (8000c0c <USART_Configuration+0x68>)
 8000ba8:	b085      	sub	sp, #20
 8000baa:	4604      	mov	r4, r0
 8000bac:	f7ff ff4c 	bl	8000a48 <USART_DeInit>
 8000bb0:	f244 0005 	movw	r0, #16389	; 0x4005
 8000bb4:	2101      	movs	r1, #1
 8000bb6:	f7ff fe4b 	bl	8000850 <RCC_APB2PeriphClockCmd>
 8000bba:	2118      	movs	r1, #24
 8000bbc:	f44f 7200 	mov.w	r2, #512	; 0x200
 8000bc0:	2302      	movs	r3, #2
 8000bc2:	4628      	mov	r0, r5
 8000bc4:	f7ff fc82 	bl	80004cc <set_io>
 8000bc8:	4628      	mov	r0, r5
 8000bca:	2118      	movs	r1, #24
 8000bcc:	f44f 6280 	mov.w	r2, #1024	; 0x400
 8000bd0:	2304      	movs	r3, #4
 8000bd2:	f7ff fc7b 	bl	80004cc <set_io>
 8000bd6:	f44f 32e1 	mov.w	r2, #115200	; 0x1c200
 8000bda:	2300      	movs	r3, #0
 8000bdc:	480c      	ldr	r0, [pc, #48]	; (8000c10 <USART_Configuration+0x6c>)
 8000bde:	4669      	mov	r1, sp
 8000be0:	9200      	str	r2, [sp, #0]
 8000be2:	224c      	movs	r2, #76	; 0x4c
 8000be4:	f8ad 3004 	strh.w	r3, [sp, #4]
 8000be8:	f8ad 3006 	strh.w	r3, [sp, #6]
 8000bec:	f8ad 3008 	strh.w	r3, [sp, #8]
 8000bf0:	f8ad 300c 	strh.w	r3, [sp, #12]
 8000bf4:	f8ad 200a 	strh.w	r2, [sp, #10]
 8000bf8:	f7ff ff7e 	bl	8000af8 <USART_Init>
 8000bfc:	89a1      	ldrh	r1, [r4, #12]
 8000bfe:	b288      	uxth	r0, r1
 8000c00:	f440 5300 	orr.w	r3, r0, #8192	; 0x2000
 8000c04:	81a3      	strh	r3, [r4, #12]
 8000c06:	b005      	add	sp, #20
 8000c08:	bd30      	pop	{r4, r5, pc}
 8000c0a:	bf00      	nop
 8000c0c:	40010800 	andmi	r0, r1, r0, lsl #16
 8000c10:	40013800 	andmi	r3, r1, r0, lsl #16

08000c14 <USART_GetFlagStatus>:
 8000c14:	8803      	ldrh	r3, [r0, #0]
 8000c16:	4219      	tst	r1, r3
 8000c18:	bf0c      	ite	eq
 8000c1a:	2000      	moveq	r0, #0
 8000c1c:	2001      	movne	r0, #1
 8000c1e:	4770      	bx	lr

08000c20 <USART_SendData>:
 8000c20:	05ca      	lsls	r2, r1, #23
 8000c22:	0dd1      	lsrs	r1, r2, #23
 8000c24:	8081      	strh	r1, [r0, #4]
 8000c26:	4770      	bx	lr

08000c28 <printfs>:
 8000c28:	b510      	push	{r4, lr}
 8000c2a:	4604      	mov	r4, r0
 8000c2c:	f814 1b01 	ldrb.w	r1, [r4], #1
 8000c30:	b161      	cbz	r1, 8000c4c <printfs+0x24>
 8000c32:	4807      	ldr	r0, [pc, #28]	; (8000c50 <printfs+0x28>)
 8000c34:	f7ff fff4 	bl	8000c20 <USART_SendData>
 8000c38:	4805      	ldr	r0, [pc, #20]	; (8000c50 <printfs+0x28>)
 8000c3a:	2180      	movs	r1, #128	; 0x80
 8000c3c:	f7ff ffea 	bl	8000c14 <USART_GetFlagStatus>
 8000c40:	2800      	cmp	r0, #0
 8000c42:	d0f9      	beq.n	8000c38 <printfs+0x10>
 8000c44:	f814 1b01 	ldrb.w	r1, [r4], #1
 8000c48:	2900      	cmp	r1, #0
 8000c4a:	d1f2      	bne.n	8000c32 <printfs+0xa>
 8000c4c:	bd10      	pop	{r4, pc}
 8000c4e:	bf00      	nop
 8000c50:	40013800 	andmi	r3, r1, r0, lsl #16

08000c54 <communication_agreement_start>:
 8000c54:	4a03      	ldr	r2, [pc, #12]	; (8000c64 <communication_agreement_start+0x10>)
 8000c56:	4904      	ldr	r1, [pc, #16]	; (8000c68 <communication_agreement_start+0x14>)
 8000c58:	2300      	movs	r3, #0
 8000c5a:	700b      	strb	r3, [r1, #0]
 8000c5c:	6013      	str	r3, [r2, #0]
 8000c5e:	6053      	str	r3, [r2, #4]
 8000c60:	4770      	bx	lr
 8000c62:	bf00      	nop
 8000c64:	20000020 	andcs	r0, r0, r0, lsr #32
 8000c68:	20000028 	andcs	r0, r0, r8, lsr #32

08000c6c <C.0.4690>:
 8000c6c:	33323130 	teqcc	r2, #48, 2
 8000c70:	37363534 			; <UNDEFINED> instruction: 0x37363534
 8000c74:	42413938 	submi	r3, r1, #56, 18	; 0xe0000
 8000c78:	46454443 	strbmi	r4, [r5], -r3, asr #8
 8000c7c:	63637573 	cmnvs	r3, #482344960	; 0x1cc00000
 8000c80:	20737365 	rsbscs	r7, r3, r5, ror #6
 8000c84:	66206f74 	qsub16vs	r6, r0, r4
 8000c88:	73696e69 	cmnvc	r9, #1680	; 0x690
 8000c8c:	73752068 	cmnvc	r5, #104	; 0x68
 8000c90:	20747261 	rsbscs	r7, r4, r1, ror #4
 8000c94:	666e6f43 	strbtvs	r6, [lr], -r3, asr #30
 8000c98:	72756769 	rsbsvc	r6, r5, #27525120	; 0x1a40000
 8000c9c:	6f697461 	svcvs	0x00697461
 8000ca0:	0a0d216e 	beq	8349260 <_sidata+0x348154>
 8000ca4:	00000a0d 	andeq	r0, r0, sp, lsl #20
 8000ca8:	63637573 	cmnvs	r3, #482344960	; 0x1cc00000
 8000cac:	20737365 	rsbscs	r7, r3, r5, ror #6
 8000cb0:	66206f74 	qsub16vs	r6, r0, r4
 8000cb4:	73696e69 	cmnvc	r9, #1680	; 0x690
 8000cb8:	68742068 	ldmdavs	r4!, {r3, r5, r6, sp}^
 8000cbc:	656c2065 	strbvs	r2, [ip, #-101]!	; 0xffffff9b
 8000cc0:	63732064 	cmnvs	r3, #100	; 0x64
 8000cc4:	6e656572 	mcrvs	5, 3, r6, cr5, cr2, {3}
 8000cc8:	696e6920 	stmdbvs	lr!, {r5, r8, fp, sp, lr}^
 8000ccc:	74616974 	strbtvc	r6, [r1], #-2420	; 0xfffff68c
 8000cd0:	216e6f69 	cmncs	lr, r9, ror #30
 8000cd4:	0a0d0a0d 	beq	8343510 <_sidata+0x342404>
 8000cd8:	00000000 	andeq	r0, r0, r0
 8000cdc:	63637573 	cmnvs	r3, #482344960	; 0x1cc00000
 8000ce0:	20737365 	rsbscs	r7, r3, r5, ror #6
 8000ce4:	66206f74 	qsub16vs	r6, r0, r4
 8000ce8:	73696e69 	cmnvc	r9, #1680	; 0x690
 8000cec:	68742068 	ldmdavs	r4!, {r3, r5, r6, sp}^
 8000cf0:	79732065 	ldmdbvc	r3!, {r0, r2, r5, r6, sp}^
 8000cf4:	63697473 	cmnvs	r9, #1929379840	; 0x73000000
 8000cf8:	6e69206b 	cdpvs	0, 6, cr2, cr9, cr11, {3}
 8000cfc:	61697469 	cmnvs	r9, r9, ror #8
 8000d00:	6e6f6974 	mcrvs	9, 3, r6, cr15, cr4, {3}
 8000d04:	0d0a0d21 	stceq	13, cr0, [sl, #-132]	; 0xffffff7c
 8000d08:	0000000a 	andeq	r0, r0, sl
 8000d0c:	63637573 	cmnvs	r3, #482344960	; 0x1cc00000
 8000d10:	20737365 	rsbscs	r7, r3, r5, ror #6
 8000d14:	66206f74 	qsub16vs	r6, r0, r4
 8000d18:	73696e69 	cmnvc	r9, #1680	; 0x690
 8000d1c:	68742068 	ldmdavs	r4!, {r3, r5, r6, sp}^
 8000d20:	66742065 	ldrbtvs	r2, [r4], -r5, rrx
 8000d24:	63732074 	cmnvs	r3, #116	; 0x74
 8000d28:	6e656572 	mcrvs	5, 3, r6, cr5, cr2, {3}
 8000d2c:	696e6920 	stmdbvs	lr!, {r5, r8, fp, sp, lr}^
 8000d30:	74616974 	strbtvc	r6, [r1], #-2420	; 0xfffff68c
 8000d34:	216e6f69 	cmncs	lr, r9, ror #30
 8000d38:	0a0d0a0d 	beq	8343574 <_sidata+0x342468>
 8000d3c:	00000000 	andeq	r0, r0, r0
 8000d40:	63637573 	cmnvs	r3, #482344960	; 0x1cc00000
 8000d44:	20737365 	rsbscs	r7, r3, r5, ror #6
 8000d48:	66206f74 	qsub16vs	r6, r0, r4
 8000d4c:	73696e69 	cmnvc	r9, #1680	; 0x690
 8000d50:	68742068 	ldmdavs	r4!, {r3, r5, r6, sp}^
 8000d54:	6f742065 	svcvs	0x00742065
 8000d58:	20686375 	rsbcs	r6, r8, r5, ror r3
 8000d5c:	74696e69 	strbtvc	r6, [r9], #-3689	; 0xfffff197
 8000d60:	69746169 	ldmdbvs	r4!, {r0, r3, r5, r6, r8, sp, lr}^
 8000d64:	0d216e6f 	stceq	14, cr6, [r1, #-444]!	; 0xfffffe44
 8000d68:	000a0d0a 	andeq	r0, sl, sl, lsl #26
 8000d6c:	63637573 	cmnvs	r3, #482344960	; 0x1cc00000
 8000d70:	20737365 	rsbscs	r7, r3, r5, ror #6
 8000d74:	6f206f74 	svcvs	0x00206f74
 8000d78:	206e6570 	rsbcs	r6, lr, r0, ror r5
 8000d7c:	20656874 	rsbcs	r6, r5, r4, ror r8
 8000d80:	65746e69 	ldrbvs	r6, [r4, #-3689]!	; 0xfffff197
 8000d84:	70757272 	rsbsvc	r7, r5, r2, ror r2
 8000d88:	69282174 	stmdbvs	r8!, {r2, r4, r5, r6, r8, sp}
 8000d8c:	756c636e 	strbvc	r6, [ip, #-878]!	; 0xfffffc92
 8000d90:	676e6964 	strbvs	r6, [lr, -r4, ror #18]!
 8000d94:	73797320 	cmnvc	r9, #32, 6	; 0x80000000
 8000d98:	6b636974 	blvs	98db370 <_sidata+0x18da264>
 8000d9c:	69207327 	stmdbvs	r0!, {r0, r1, r2, r5, r8, r9, ip, sp, lr}
 8000da0:	7265746e 	rsbvc	r7, r5, #1845493760	; 0x6e000000
 8000da4:	74707572 	ldrbtvc	r7, [r0], #-1394	; 0xfffffa8e
 8000da8:	0d0a0d29 	stceq	13, cr0, [sl, #-164]	; 0xffffff5c
 8000dac:	0000000a 	andeq	r0, r0, sl
 8000db0:	63637573 	cmnvs	r3, #482344960	; 0x1cc00000
 8000db4:	20737365 	rsbscs	r7, r3, r5, ror #6
 8000db8:	73206f74 	teqvc	r0, #116, 30	; 0x1d0
 8000dbc:	74726174 	ldrbtvc	r6, [r2], #-372	; 0xfffffe8c
 8000dc0:	65687420 	strbvs	r7, [r8, #-1056]!	; 0xfffffbe0
 8000dc4:	73797320 	cmnvc	r9, #32, 6	; 0x80000000
 8000dc8:	6b636974 	blvs	98db3a0 <_sidata+0x18da294>
 8000dcc:	0d0a0d21 	stceq	13, cr0, [sl, #-132]	; 0xffffff7c
 8000dd0:	0000000a 	andeq	r0, r0, sl
 8000dd4:	65726761 	ldrbvs	r6, [r2, #-1889]!	; 0xfffff89f
 8000dd8:	6e656d65 	cdpvs	13, 6, cr6, cr5, cr5, {3}
 8000ddc:	73692074 	cmnvc	r9, #116	; 0x74
 8000de0:	616e6520 	cmnvs	lr, r0, lsr #10
 8000de4:	21656c62 	cmncs	r5, r2, ror #24
 8000de8:	00000000 	andeq	r0, r0, r0
 8000dec:	20776f6e 	rsbscs	r6, r7, lr, ror #30
 8000df0:	69206562 	stmdbvs	r0!, {r1, r5, r6, r8, sl, sp, lr}
 8000df4:	6874206e 	ldmdavs	r4!, {r1, r2, r3, r5, r6, sp}^
 8000df8:	616d2065 	cmnvs	sp, r5, rrx
 8000dfc:	66206e69 	strtvs	r6, [r0], -r9, ror #28
 8000e00:	69746e75 	ldmdbvs	r4!, {r0, r2, r4, r5, r6, r9, sl, fp, sp, lr}^
 8000e04:	0a0d6e6f 	beq	835c7c8 <_sidata+0x35b6bc>
 8000e08:	00000a0d 	andeq	r0, r0, sp, lsl #20

Disassembly of section .ARM.attributes:

08000e0c <.ARM.attributes>:
 8000e0c:	00002e41 	andeq	r2, r0, r1, asr #28
 8000e10:	61656100 	cmnvs	r5, r0, lsl #2
 8000e14:	01006962 	tsteq	r0, r2, ror #18
 8000e18:	00000024 	andeq	r0, r0, r4, lsr #32
 8000e1c:	726f4305 	rsbvc	r4, pc, #335544320	; 0x14000000
 8000e20:	2d786574 	cfldr64cs	mvdx6, [r8, #-464]!	; 0xfffffe30
 8000e24:	0600334d 	streq	r3, [r0], -sp, asr #6
 8000e28:	094d070a 	stmdbeq	sp, {r1, r3, r8, r9, sl}^
 8000e2c:	14041202 	strne	r1, [r4], #-514	; 0xfffffdfe
 8000e30:	17011501 	strne	r1, [r1, -r1, lsl #10]
 8000e34:	1a011803 	bne	8046e48 <_sidata+0x45d3c>
 8000e38:	Address 0x08000e38 is out of bounds.


Disassembly of section .data:

20000000 <_sdata>:
20000000:	00000000 	andeq	r0, r0, r0
20000004:	04030201 	streq	r0, [r3], #-513	; 0xfffffdff
20000008:	04030201 	streq	r0, [r3], #-513	; 0xfffffdff
2000000c:	09080706 	stmdbeq	r8, {r1, r2, r8, r9, sl}

20000010 <ADCPrescTable>:
20000010:	08060402 	stmdaeq	r6, {r1, sl}

Disassembly of section .bss:

20000014 <__bss_start__>:
20000014:	00000000 	andeq	r0, r0, r0

20000018 <led_glitter>:
20000018:	00000000 	andeq	r0, r0, r0

2000001c <second>:
2000001c:	00000000 	andeq	r0, r0, r0

20000020 <client_sum>:
20000020:	00000000 	andeq	r0, r0, r0

20000024 <server_sum>:
20000024:	00000000 	andeq	r0, r0, r0

20000028 <command>:
20000028:	00000000 	andeq	r0, r0, r0

Disassembly of section ._user_heap_stack:

2000002c <._user_heap_stack>:
	...

Disassembly of section .comment:

00000000 <.comment>:
   0:	3a434347 	bcc	10d0d24 <SRAMSIZE+0x10cbd24>
   4:	6f532820 	svcvs	0x00532820
   8:	65637275 	strbvs	r7, [r3, #-629]!	; 0xfffffd8b
   c:	47207972 			; <UNDEFINED> instruction: 0x47207972
  10:	4c202b2b 	stcmi	11, cr2, [r0], #-172	; 0xffffff54
  14:	20657469 	rsbcs	r7, r5, r9, ror #8
  18:	31313032 	teqcc	r1, r2, lsr r0
  1c:	2d33302e 	ldccs	0, cr3, [r3, #-184]!	; 0xffffff48
  20:	20293634 	eorcs	r3, r9, r4, lsr r6
  24:	2e352e34 	mrccs	14, 1, r2, cr5, cr4, {1}
  28:	Address 0x00000028 is out of bounds.

